$g:_glClearStencil
wQ:__ZN18btDbvtTreeCollider7ProcessEPK10btDbvtNodeS2_
T7:__ZN8dmScript17ResolveInInstanceEP9lua_Statei
e1a:___get_locale
Qna:__ZN5dmHID22SetGamepadConnectivityEPNS_7ContextEib
y$:__ZN16b2ContactManager7CollideEv
Jo:__ZN12dmGameObject24DestroyPropertyContainerEPNS_17PropertyContainerE
qA:__ZN12dmGameSystem16CreateVertexDataEPNS_13TileGridWorldEPNS_14TileGridVertexEPNS_18TextureSetResourceEPN8dmRender15RenderListEntryEPjS9_
VE:__ZN12dmGameSystem24ParticleFX_ResetConstantEP9lua_State
woa:__ZN7dmInput13UpdateBindingEPNS_7BindingEf
_na:__ZN5dmHIDL17CharacterCallbackEii
QSa:_ccm_aes_setkey_wrap
bj:_pthread_attr_init
fda:_meth_setoption_7755
_S:__ZN28btCompoundCollisionAlgorithm10CreateFunc24CreateCollisionAlgorithmER36btCollisionAlgorithmConstructionInfoP17btCollisionObjectS4_
JQa:_mbedtls_asn1_get_bitstring_null
fn:__ZN12dmGameObject3NewEPNS_16CollectionHandleEPKc
mTa:_mbedtls_des3_crypt_ecb
ED:__ZN12dmGameSystem14GetStreamValueIaEEdPvi
Zwa:_EmitRescaledAlphaRGB
AXa:_ssl_generate_random
nya:_LD4
tMa:_mbedtls_sha1_init
v1a:__ZdlPv
N3:__ZN8dmRender19FinalizeTextContextEPNS_13RenderContextE
lSa:_chacha20_stream_wrap
Gm:__ZN12dmGameObject10CollectionD2Ev
LG:__GLOBAL__sub_I_sprite_ddf_cpp
Pz:__ZN12dmGameSystemL27UpdateCurrentAnimationFrameEPNS_15SpriteComponentE
YBa:__ZNSt3__27__sort4IRN5dmGui19RenderEntrySortPredEPNS1_11RenderEntryEEEjT0_S6_S6_S6_T_
t9:__ZN8dmScript8CheckURLEP9lua_Statei
eHa:__ZN7dmCrash4InitEPKcS1_
NTa:_mbedtls_ecdh_calc_secret
W5a:_emscripten_glDeleteBuffers__wrapper
M$:__ZN9b2Fixture14DestroyProxiesEP12b2BroadPhase
nza:_WebPRescalerExportRow
r8a:_emscripten_glGetActiveUniformBlockiv__wrapper
MGa:__ZN5dmGuiL11LuaPushNodeEP9lua_StatePNS_5SceneEj
dDa:__ZN5dmGui17SetNodeSpineSceneEPNS_5SceneEjPKcyyb
g8:__ZN8dmScript15InitializeBitopEP9lua_State
Bd:_emscripten_glFlush
Cwa:__ZN16dmConnectionPool13GetReuseCountEPNS_14ConnectionPoolEj
bQ:__ZN15btNullPairCache28setInternalGhostPairCallbackEP25btOverlappingPairCallback
dYa:_mbedtls_asn1_write_tag
Vda:_buffer_meth_setstats
SJa:_AudioDecoderWav
P2a:dynCall_fiiiiiiiiiii
Td:_emscripten_glGetAttribLocation
tY:__ZN23btConvexConvexAlgorithm22getAllContactManifoldsER20btAlignedObjectArrayIP20btPersistentManifoldE
Gfa:_lua_pushfstring
iCa:__ZN5dmGui15DispatchMessageEPNS_5SceneEPN9dmMessage7MessageE
UUa:_mbedtls_ecp_mul
lLa:_eckey_sign_wrap
ur:__ZN5dmDDF11InputBuffer4SkipEj
RF:__ZN12dmGameSystem16SpineComp_CancelEP9lua_State
DO:__ZN23btDiscreteDynamicsWorld21updateActivationStateEf
OHa:__ZN7dmCrash10WriteCrashEPKcPNS_8AppStateE
eM:__ZN9dmPhysics17NewCapsuleShape3DEPNS_9Context3DEff
_Ka:_rsa_get_bitlen
hna:_gmatch_aux
O1a:__ZNK10__cxxabiv120__si_class_type_info16search_above_dstEPNS_19__dynamic_cast_infoEPKvS4_ib
Ns:__ZN11dmHashTableIyPKcE3PutEyRKS1_
Aia:_luaV_equalval
Av:__ZN12dmGameSystem29CompCollisionObjectPostUpdateERKN12dmGameObject26ComponentsPostUpdateParamsE
Lx:__ZN7dmArrayImE14OffsetCapacityEi
eR:__ZN28btHashedOverlappingPairCache10growTablesEv
wq:__ZN11dmHashTableImtE11SetCapacityEjj
RG:__ZN12dmGameSystem19SetMaterialConstantEPN8dmRender8MaterialEyRKN12dmGameObject11PropertyVarEPFvPvyPjS6_ES7_
KP:__ZN20btAxisSweep3InternalItE11sortMaxDownEitP12btDispatcherb
kc:_emscripten_glBeginTransformFeedback
wLa:_mbedtls_pk_parse_subpubkey
nla:_luaopen_io
F$:__ZNSt3__27__sort4IRPFbRK6b2PairS3_EPS1_EEjT0_S8_S8_S8_T_
WV:__ZNK13btSphereShape7getAabbERK11btTransformR9btVector3S4_
mga:_lua_gethookcount
GEa:__ZN5dmGui11LuaGetScaleEP9lua_State
aa:invoke_fiiiii
yH:__ZN10dmGraphics18SetIndexBufferDataEmjPKvNS_11BufferUsageE
xm:__ZN11dmHashTableIyPN12dmGameObject8InstanceEE11SetCapacityEjj
id:_emscripten_glDepthRange
JAa:_DoHorizontalFilter
kCa:__ZN5dmGui11ReloadSceneEPNS_5SceneE
G0a:___bswap_16_474
$Qa:_mbedtls_mpi_size
pfa:_lua_rawequal
uZa:_strtoul
r$a:_fopen
lua:__ZN9dmProfile11InternalizeEPKcjj
sV:__ZNK17btConvexHullShape11getNumEdgesEv
caa:__ZN8dmScript21TimerFinalizeInstanceEPNS_11ScriptWorldE
Y6:__ZN8dmScript10InitializeEPNS_7ContextE
Swa:_VP8GetThreadMethod
hZ:__ZNK13b2CircleShape11ComputeMassEP10b2MassDataf
Dma:_tconcat
gja:_luaL_addvalue
$P:__ZN15btNullPairCache8findPairEP17btBroadphaseProxyS1_
xR:__ZN21btCollisionDispatcher19defaultNearCallbackER16btBroadphasePairRS_RK16btDispatcherInfo
Fra:_dmHashFinal64
vv:__ZN12dmGameSystem21TriggerExitedCallbackERKN9dmPhysics11TriggerExitEPv
iD:__ZN12dmGameSystem17ResTextureDestroyERKN10dmResource21ResourceDestroyParamsE
_L:__ZN16btCollisionWorld17RayResultCallbackD2Ev
TJ:__ZN10dmGraphicsL18OpenGLSetDepthMaskEPNS_7ContextEb
wR:__ZN21btCollisionDispatcherC2EP24btCollisionConfiguration
$Wa:_ssl_write_certificate_verify
I:Math_atan2
yE:__ZN12dmGameSystem16FactoryComp_LoadEP9lua_State
lRa:_mbedtls_mpi_mul_mpi
I1:__ZN13b2PulleyJoint24SolvePositionConstraintsERK12b2SolverData
wJ:__ZN10dmGraphicsL22OpenGLNewVertexProgramEPNS_7ContextEPNS_10ShaderDesc6ShaderE
APa:_mbedtls_ssl_sig_from_pk
XP:__ZNK15btNullPairCache22getNumOverlappingPairsEv
Qm:__ZN12dmGameObjectL26InsertInstanceInLevelIndexEPNS_10CollectionEPNS_8InstanceE
Rba:__ZN8dmScript12Zlib_DeflateEP9lua_State
$sa:__ZL22stbi__resample_row_h_2PhS_S_ii
lg:_emscripten_glVertexAttribI2uiv
bNa:_ssl_calc_verify_tls_sha384
hy:__ZN12dmGameSystem15CompModelRenderERKN12dmGameObject22ComponentsRenderParamsE
Tp:__ZN12dmGameObject12ReloadScriptEPNS_6ScriptEPN8dmLuaDDF9LuaModuleE
Maa:__ZN8dmScriptL6LengthEP9lua_State
uGa:__ZN5dmGuiL14LuaSetTrackingEP9lua_State
E8a:_emscripten_glRenderbufferStorageMultisample__wrapper
Y0a:_shutdown
yEa:__ZN5dmGui15LuaCurveReleaseEPN8dmEasing5CurveE
p$a:___fmodeflags
ZG:__ZN10dmGraphics19GetTextureFormatBPPENS_13TextureFormatE
U_a:_select
n3a:dynCall_viffff
T9:__ZN8dmScript13NewTimerWorldEv
bs:__ZN5dmDDF11LoadContext9GetOffsetEPv
i3a:dynCall_vfi
Ar:__ZN5dmDDF11InputBuffer11ReadFixed64EPy
PEa:__ZN5dmGui14LuaSetRotationEP9lua_State
sia:_luaU_undump
O0:__ZN9b2Contact6UpdateEP17b2ContactListener
lfa:_lua_iscfunction
g1a:_strcoll
cG:__ZN12dmGameSystem24SpriteComp_ResetConstantEP9lua_State
FO:__ZZN23btDiscreteDynamicsWorld16solveConstraintsER19btContactSolverInfoEN27InplaceSolverIslandCallback18processConstraintsEv
dN:__ZN9dmPhysics11DebugDraw3D12setDebugModeEi
Iqa:__ZN12dmConfigFileL22LoadFromBufferInternalEPKcS1_jiPS1_PPNS_6ConfigE
r8:__ZN8dmScriptL24InternalUpdateExtensionsEPNS_7ContextE
eoa:__ZN5dmHID12ShowKeyboardEPNS_7ContextENS_12KeyboardTypeEb
Tz:__ZN12dmGameSystem16CompSpriteUpdateERKN12dmGameObject22ComponentsUpdateParamsERNS0_22ComponentsUpdateResultE
jw:__ZN12dmGameSystem20CompFactoryGetStatusEPNS_16FactoryComponentE
Xfa:_lua_setfenv
xWa:_oid_sig_alg_from_asn1
fH:__ZN10dmGraphics14GetWindowStateEPNS_7ContextENS_11WindowStateE
mI:__ZN10dmGraphics19GetRenderTargetSizeEPNS_12RenderTargetENS_10BufferTypeERjS3_
Opa:__ZN5dmRigL9DoAnimateEPNS_10RigContextEPNS_11RigInstanceEf
T_a:_poll
Eda:_socket_gaistrerror
HR:__ZN16btCollisionWorldD2Ev
KW:__ZN15btTriangleShapeD0Ev
qt:__ZN10dmResource12GetLoadMutexEPNS_16SResourceFactoryE
CT:__ZN32btSphereSphereCollisionAlgorithm16processCollisionEP17btCollisionObjectS1_RK16btDispatcherInfoP16btManifoldResult
lS:__ZThn4_N17DebugDrawcallbackD1Ev
G1a:__ZNK10__cxxabiv117__class_type_info16search_below_dstEPNS_19__dynamic_cast_infoEPKvib
jna:_luaopen_package
JV:__ZNK13btConvexShape31localGetSupportVertexNonVirtualERK9btVector3
pC:__ZN12dmGameSystem16AcquireResourcesEPN10dmResource16SResourceFactoryEPKvjPN10dmParticle9PrototypeEPKc
S7a:_emscripten_glBufferSubData__wrapper
yM:__ZN9dmPhysics12SetGravity3DEPNS_7World3DERKN10Vectormath3Aos7Vector3E
wIa:__ZN7dmSoundL23MixResampleIdentityMonoIhLi128ELi255EEEvPKNS_10MixContextEPNS_13SoundInstanceEjjPfj
a2:__ZN12b2WheelJoint23InitVelocityConstraintsERK12b2SolverData
c_a:_vfprintf
OOa:_mbedtls_ssl_optimize_checksum
$x:__ZN12dmObjectPoolIPN12dmGameSystem14ModelComponentEE4FreeEjb
rJ:__ZN10dmGraphicsL36OpenGLEnableVertexDeclarationProgramEPNS_7ContextEPNS_17VertexDeclarationEmm
pP:__ZN20btAxisSweep3InternalItEC2ERK9btVector3S3_tttP22btOverlappingPairCacheb
ZM:__ZN12btIDebugDraw10drawSphereERK9btVector3fS2_
Rva:_deflateInit_
pY:__ZN23btConvexConvexAlgorithmD2Ev
cD:__ZN12dmGameSystem16AcquireResourcesEPN10dmResource19SResourceDescriptorEPN10dmGraphics7ContextEPNS_9ImageDescEPNS3_7TextureEPS9_
WVa:_sha1_starts_wrap
ST:__ZN22SphereTriangleDetectorD0Ev
Pi:_llvm_ceil_f64
_V:__ZNK13btSphereShape9getMarginEv
kY:__ZN24btConvexTriangleCallback15processTriangleEP9btVector3ii
p2a:___udivdi3
BB:__ZN12dmGameSystem20ResRecreateGuiScriptERKN10dmResource22ResourceRecreateParamsE
G$:__ZNSt3__218__insertion_sort_3IRPFbRK6b2PairS3_EPS1_EEvT0_S8_T_
qia:_luaT_gettm
wH:__ZN10dmGraphics14NewIndexBufferEPNS_7ContextEjPKvNS_11BufferUsageE
Gt:__ZN17dmResourceArchive4ReadEPNS_21ArchiveIndexContainerEPNS_9EntryDataEPv
kV:__ZNK17btConvexHullShape7getNameEv
LD:__ZN12dmGameSystem14SetStreamValueIiEEvPvid
Ipa:__ZN5dmRig15CancelAnimationEPNS_11RigInstanceE
Ok:setTempRet0
pM:__ZN9dmPhysics20GetAngularVelocity3DEPNS_9Context3DEPv
CZ:__ZN11b2GridShape17CalculateCellMaskEP9b2Fixturejj
Ws:__ZN10dmResourceL16LoadFromManifestEPKNS_8ManifestEPKcPjP7dmArrayIcE
Hba:__ZN8dmScript11CheckVectorEP9lua_Statei
una:_ll_seeall
IHa:__ZN7dmCrash12SetLoadAddrsEPNS_8AppStateE
fz:__ZN12dmGameSystemL18OnResourceReloadedEPNS_15SpineModelWorldEPNS_19SpineModelComponentEi
Lha:_field
ZR:__ZZN16btCollisionWorld13rayTestSingleERK11btTransformS2_P17btCollisionObjectPK16btCollisionShapeS2_RNS_17RayResultCallbackEEN15LocalInfoAdder2D0Ev
Dg:_emscripten_set_main_loop
PIa:__ZN7dmSound16SetInstanceGroupEPNS_13SoundInstanceEy
xT:__ZN25btSimulationIslandManager12buildIslandsEP12btDispatcherP16btCollisionWorld
vx:__GLOBAL__sub_I_comp_mesh_cpp
A2a:_memmove
AOa:_mbedtls_ssl_write_certificate
Ija:_luaK_dischargevars
NXa:_mbedtls_x509_get_alg_null
h$a:_strrchr
oJa:_stb_vorbis_get_info
Ch:_glGetActiveUniform
U1a:__ZSt9terminatev
Vsa:__ZL23stbi__jpeg_decode_blockP10stbi__jpegPsP13stbi__huffmanS3_S1_iPt
Gta:__ZN9dmMessage13IsSocketValidEy
OE:__ZN12dmGameSystem19ScriptModelRegisterERKNS_16ScriptLibContextE
SXa:_x509_get_attr_type_value
gSa:_mbedtls_cipher_auth_encrypt
PS:__ZN26btBoxBoxCollisionAlgorithm10CreateFuncD0Ev
WU:__ZNK15btCompoundShape15getLocalScalingEv
DK:__ZN10dmGraphicsL12CreateShaderEjPKvj
sLa:_eckeydh_can_do
Gua:__ZN8dmSocket7ReceiveEiPviPi
Ak:FUNCTION_TABLE_viiiiif
Fw:__ZN12dmGameSystem13CompGuiUpdateERKN12dmGameObject22ComponentsUpdateParamsERNS0_22ComponentsUpdateResultE
ER:__ZN17btCollisionObjectC2Ev
Bk:FUNCTION_TABLE_viiiiii
Fj:FUNCTION_TABLE_fi
cs:__ZN5dmDDF11LoadContext10GetPointerEj
YU:__ZNK15btCompoundShape7getNameEv
AAa:_VP8FiltersInit
mD:__ZN12dmGameSystem20ResTextureSetPreloadERKN10dmResource21ResourcePreloadParamsE
pHa:__ZN7dmCrash5PurgeEv
eX:__ZN22btVoronoiSimplexSolver9addVertexERK9btVector3S2_S2_
Uga:_luaF_findupval
ZMa:_tls_prf_sha384
dT:__ZN20btCollisionAlgorithmD2Ev
S9:__GLOBAL__sub_I_script_timer_cpp
Qpa:__ZN5dmRigL14ApplyAnimationEPNS_9RigPlayerER7dmArrayIN11dmTransform9TransformEERKS2_IjERS2_INS_11IKAnimationEERS2_INS_12MeshSlotPoseEEbRS2_IiERif
m5:__ZN8dmRender22NewNamedConstantBufferEv
LX:__ZN26btBoxBoxCollisionAlgorithm22getAllContactManifoldsER20btAlignedObjectArrayIP20btPersistentManifoldE
v4:__ZNSt3__26__sortIRPFbRKN8dmRender3TagES4_EPS2_EEvT0_S9_T_
zpa:__GLOBAL__sub_I_particle_ddf_cpp
sca:_meth_accept
t4:__ZN8dmRender22GetMaterialVertexSpaceEPNS_8MaterialE
EHa:__ZN7dmCrashL15Crash_GetSignumEP9lua_State
qe:_emscripten_glGetTexParameteriv
eYa:_mbedtls_asn1_write_mpi
mh:_glDeleteTextures
Sw:__ZN12dmGameSystem18CompGuiGetPropertyERKN12dmGameObject26ComponentGetPropertyParamsERNS0_12PropertyDescE
h:HEAPF64
Bea:_opt_set_keepalive
Ona:__ZN5dmHID19GetMarkedTextPacketEPNS_7ContextEPNS_16MarkedTextPacketE
yI:__ZN10dmGraphics24GetOriginalTextureHeightEPNS_7TextureE
mt:__ZN11dmHashTableIyPKcE5EraseEy
Xya:_Predictor3
dd:_emscripten_glDeleteShader
a4:__ZN8dmRender22ApplyMaterialConstantsEPNS_13RenderContextEPNS_8MaterialEPKNS_12RenderObjectE
EG:__GLOBAL__sub_I_gui_ddf_cpp
qWa:_sha384_ctx_free
FW:__ZN20btPersistentManifold20refreshContactPointsERK11btTransformS2_
nQa:_x509_crt_check_parent
A9:__ZN8dmScript16Sys_LoadResourceEP9lua_State
FJ:__ZN10dmGraphicsL19OpenGLEnableProgramEPNS_7ContextEm
Oj:FUNCTION_TABLE_i
L2a:dynCall_fiiifii
jia:_luaH_getnum
h7a:_emscripten_glUniform3iv__wrapper
yDa:__ZN5dmGui18SetNodeSpineCursorEPNS_5SceneEjf
$j:FUNCTION_TABLE_v
RBa:__ZN5dmGuiL15CollectClippersEPNS_5SceneEtttR7dmArrayINS_20InternalClippingNodeEEt
V9:__ZN8dmScript12UpdateTimersEPNS_10TimerWorldEf
pTa:_mbedtls_dhm_read_params
Ypa:__ZN5dmRig18GenerateVertexDataEPNS_10RigContextEPNS_11RigInstanceERKN10Vectormath3Aos7Matrix4ES8_NS5_7Vector4ENS_15RigVertexFormatEPv
Sia:_luaL_checktype
cd:_emscripten_glDeleteRenderbuffers
fma:_math_min
fu:__ZN16dmBlockAllocator8AllocateEPNS_7ContextEj
Mja:_luaK_exp2anyreg
l1a:_isxdigit
LVa:_mbedtls_md_hmac_reset
eP:__ZN11btRigidBody12applyDampingEf
I8a:_emscripten_glColorMaski__wrapper
R_a:_memcmp
lCa:__ZN5dmGui14SetSceneScriptEPNS_5SceneEPNS_6ScriptE
Yoa:__ZN10dmParticle12StopInstanceEPNS_7ContextEj
U0a:_accept
Vg:_glBufferData
q3:__ZN8dmRender12RenderObjectaSERKS0_
eua:__ZN9dmProfile8FinalizeEv
tw:__ZN12dmGameSystem25FetchRigSceneDataCallbackEPvyPN5dmGui16RigSceneDataDescE
z8:__ZN8dmScript25GetStringFromHashOrStringEP9lua_StateiPcj
gKa:__ZN12dmSoundCodec7GetInfoEPNS_12CodecContextEPNS_7DecoderEPNS_4InfoE
iO:__ZN23btDiscreteDynamicsWorld19setConstraintSolverEP18btConstraintSolver
U2a:dynCall_iiif
Ou:__ZN12dmGameSystem27CompCollectionFactoryUnloadEPN12dmGameObject16CollectionHandleEPNS_26CollectionFactoryComponentE
BT:__ZN32btSphereSphereCollisionAlgorithmD0Ev
ZKa:_mbedtls_pk_get_type
Z_a:_strncat
Nya:_VP8LConvertBGRAToRGB_C
s6:__ZN8dmRender18DeleteRenderScriptEPNS_13RenderContextEPNS_12RenderScriptE
MC:__ZN12dmGameSystem16AcquireResourcesEPN10dmResource16SResourceFactoryEPN10dmSoundDDF9SoundDescEPPNS_5SoundE
g$a:_twoway_strstr
_$:__ZN7b2World4StepEfii
oYa:_mbedtls_ccm_init
uE:__ZN12dmGameSystem29ScriptCollectionProxyRegisterERKNS_16ScriptLibContextE
Bz:__ZN12dmGameSystem33CompSpineModelSetIKTargetInstanceEPNS_19SpineModelComponentEyfy
zs:__ZN10dmResource13StoreManifestEPNS_8ManifestE
DQa:_mbedtls_asn1_get_len
yX:__ZN6btDbvt6removeEP10btDbvtNode
Bxa:_ExtractAlphaRows
IKa:_mbedtls_md5_update_ret
RB:__ZN12dmGameSystem16ResLightRecreateERKN10dmResource22ResourceRecreateParamsE
kz:__ZN12dmObjectPoolIPN12dmGameSystem19SpineModelComponentEE4FreeEjb
z8a:_emscripten_glTexStorage2D__wrapper
WG:__ZN10dmGraphics22GetRenderTargetTextureEPNS_12RenderTargetENS_10BufferTypeE
uCa:__ZN5dmGui18GetParticlefxCountEPNS_5SceneE
Nt:__ZN10dmResourceL22PreloaderUpdateOneItemEPNS_17ResourcePreloaderEs
tVa:_mbedtls_hmac_drbg_init
t_a:_frexp
Xca:_meth_dirty_7737
l_a:_fmt_u
A3a:dynCall_viiiiffffiif
k_a:_fmt_o
FA:__ZN12dmGameSystem15ResBufferCreateERKN10dmResource20ResourceCreateParamsE
uJ:__ZN10dmGraphicsL18OpenGLDrawElementsEPNS_7ContextENS_13PrimitiveTypeEjjNS_4TypeEm
Mm:__ZN11dmHashTableIyPN12dmGameObject8InstanceEE5EraseEy
Qoa:__ZN10dmParticle11ApplyRadialER7dmArrayINS_8ParticleEEPNS_8PropertyERKN10Vectormath3Aos6Point3Efff
WQa:_mbedtls_mpi_get_bit
QM:__ZN9dmPhysics11DebugDraw2D15DrawSolidCircleERK6b2Vec2fS3_RK7b2Color
xda:_socket_recv
F2a:_sbrk
y0:__Z14b2TimeOfImpactP11b2TOIOutputPK10b2TOIInput
$Ta:_mbedtls_ecp_grp_id_list
TFa:__ZN5dmGuiL12LuaGetSlice9EP9lua_State
GD:__ZN12dmGameSystem14GetStreamValueIjEEdPvi
OUa:_ecp_normalize_jac_many
Lj:FUNCTION_TABLE_fiiiiif
KNa:_mbedtls_ssl_recv_flight_completed
qi:_glfwGetProcAddress
Lq:__ZN12dmGameObject21CompScriptDeleteWorldERKNS_26ComponentDeleteWorldParamsE
VN:__ZN16btCollisionWorld14getDebugDrawerEv
Oxa:_DispatchAlphaToGreen
FCa:__ZN5dmGui19GetNodePropertyHashEPNS_5SceneEjy
Kja:_exp2reg
ns:__ZN5dmDDF12OutputStream10WriteFloatEf
Zja:_luaK_setlist
Fv:__ZN12dmGameSystem29CompCollisionGetGroupBitIndexEPvy
AWa:_oid_pk_alg_from_asn1
h6:__ZN8dmRenderL29RenderScriptInstance_newindexEP9lua_State
Tca:_global_create_7729
SLa:_mbedtls_rsa_check_pub_priv
o4a:_emscripten_glIsEnabledi__wrapper
wqa:__ZN8dmBuffer7DestroyEj
HHa:__ZN7dmCrashL15Crash_WriteDumpEP9lua_State
Px:__ZN12dmGameSystem19CompMeshGetPropertyERKN12dmGameObject26ComponentGetPropertyParamsERNS0_12PropertyDescE
nh:_glDepthFunc
$Ja:__ZN10dmDeviceJS18DeviceJSDeviceInfoEPvPN7dmSound10DeviceInfoE
HWa:_mbedtls_pem_read_buffer
D2a:_pthread_mutex_trylock
Ec:_emscripten_glClampColor
D0a:_ntohs
Cs:__ZN10dmResourceL12LoadManifestEPKcPNS_16SResourceFactoryE
w3a:dynCall_viiif
rma:_os_clock
J4:__ZN8dmRender19DeleteRenderContextEPNS_13RenderContextEPN8dmScript7ContextE
V0a:_ntohl
y3a:dynCall_viiii
D4:__ZN8dmRender12RenderObjectC2Ev
Ova:_WebPRescaleNeededLines
dm:__ZN14dmFacebookStubL19Facebook_InitializeEPN11dmExtension6ParamsE
gha:_markroot
Pqa:__ZN12dmConfigFile6GetIntEPNS_6ConfigEPKci
zDa:__ZN5dmGui18GetNodeSpineCursorEPNS_5SceneEj
A_:__ZN16b2PrismaticJoint9SetLimitsEff
KBa:__ZN5dmGui17SetNodeLayoutDescEPNS_5SceneEjPKvtt
d3a:dynCall_vdd
hma:_math_pow
T_:__ZN15b2RevoluteJoint13SetMotorSpeedEf
Lfa:_lua_gettable
d6:__ZN8dmRenderL32RenderScriptConstantBuffer_indexEP9lua_State
qo:__ZN12dmGameObject11SetRotationEPNS_8InstanceEN10Vectormath3Aos4QuatE
Mba:__ZN8dmScript8PushQuatEP9lua_StateRKN10Vectormath3Aos4QuatE
pJ:__ZN10dmGraphicsL29OpenGLDeleteVertexDeclarationEPNS_17VertexDeclarationE
n0a:_open
jk:FUNCTION_TABLE_viff
FUa:_ecp_modp
dIa:__ZN12dmLiveUpdate15AsyncInitializeEPN10dmResource16SResourceFactoryE
sJ:__ZN10dmGraphicsL30OpenGLDisableVertexDeclarationEPNS_7ContextEPNS_17VertexDeclarationE
Hva:_ParseHeadersInternal
mk:FUNCTION_TABLE_vifi
f4:__ZN8dmRender30SetMaterialProgramConstantTypeEPNS_8MaterialEyN11dmRenderDDF12MaterialDesc12ConstantTypeE
Kza:_YuvToBgrRow
Npa:__ZN5dmRig6UpdateEPNS_10RigContextEf
RYa:_mbedtls_poly1305_free
lNa:_ssl_extract_add_data_from_record
oU:__ZNK10btBoxShape8getPlaneER9btVector3S1_i
LWa:_pem_aes_decrypt
Mi:_glfwTerminate
QOa:_ssl_update_checksum_sha384
SBa:__ZN5dmGuiL20CollectRenderEntriesEPNS_5SceneEttPNS_5ScopeER7dmArrayINS_20InternalClippingNodeEERS4_INS_11RenderEntryEE
O1:__ZNK11b2WeldJoint16GetReactionForceEf
dja:_luaL_buffinit
Z2:__ZNK15b2FrictionJoint17GetReactionTorqueEf
PVa:_md5_starts_wrap
sQ:__ZN16btDbvtBroadphase22performDeferredRemovalEP12btDispatcher
A7:__ZN8dmScript11ResolvePathEP9lua_StatePKcjRy
JLa:_mbedtls_rsa_import_raw
FQ:__ZNK6btDbvt15rayTestInternalEPK10btDbvtNodeRK9btVector3S5_S5_PjfS5_S5_RNS_8ICollideE
Rt:__ZN11dmHashTableIybE5EraseEy
EV:__ZN21btConvexInternalShapeC2Ev
Uia:_luaL_checknumber
hHa:__ZN7dmCrash16LoadPreviousPathEPKc
Xza:_VP8GetValue
Yu:__ZN12dmGameSystem25CompCollectionProxyUpdateERKN12dmGameObject22ComponentsUpdateParamsERNS0_22ComponentsUpdateResultE
p5:__ZN8dmRender25DeleteNamedConstantBufferEPNS_19NamedConstantBufferE
oG:__ZN12dmGameSystem20ScriptWindowRegisterERKNS_16ScriptLibContextE
ksa:__ZN17dmHttpCacheVerifyL14VerifyCallbackEPvPKN11dmHttpCache9EntryInfoE
XY:__ZN12CProfileNode5ResetEv
r$:__ZN6b2Body12SetTransformERK6b2Vec2f
Ld:_emscripten_glGenerateMipmap
gba:__ZN8dmScriptL11Quat_concatEP9lua_State
WCa:__ZN5dmGui17SetNodeSpineSceneEPNS_5SceneEjyyyb
Le:_emscripten_glIsTexture
_$a:_fputs
as:__ZN5dmDDF11LoadContext10AllocBytesEi
uc:_emscripten_glBindVertexArray
pCa:__ZN5dmGui9SetNodeIdEPNS_5SceneEjy
jG:__ZN12dmGameSystemL21TileMap_ResetConstantEP9lua_State
My:__ZN12dmGameSystem17SetRenderConstantEPNS_19CompRenderConstantsEPN8dmRender8MaterialEyPjRKN12dmGameObject11PropertyVarE
U5:__ZN8dmRender29RenderScript_SetPolygonOffsetEP9lua_State
Tha:_open_func
m4:__ZN8dmRender24GetMaterialRenderContextEPNS_8MaterialE
o3a:dynCall_vifi
E_a:___fwritex
Jx:__ZN12dmGameSystemL19GetFreeVertexBufferEPNS_9MeshWorldEPN8dmRender13RenderContextE
jI:__ZN10dmGraphics15NewRenderTargetEPNS_7ContextEjPKNS_21TextureCreationParamsEPKNS_13TextureParamsE
WM:__ZN9dmPhysics11DebugDraw3DD0Ev
V5:__ZN8dmRender21RenderScript_GetWidthEP9lua_State
t3:__ZN8dmRender6Line3DEPNS_13RenderContextEN10Vectormath3Aos6Point3ES4_NS3_7Vector4ES5_
Mb:__inet_ntop6_raw
p6:__ZN8dmRender27FinalizeRenderScriptContextERNS_19RenderScriptContextEPN8dmScript7ContextE
ac:_dmSysGetUserAgent
bA:__ZN12dmGameSystem20CompTileGridNewWorldERKN12dmGameObject23ComponentNewWorldParamsE
Jfa:_lua_pushlightuserdata
Ty:__ZN12dmGameSystem20CompSoundDeleteWorldERKN12dmGameObject26ComponentDeleteWorldParamsE
MF:__ZN12dmGameSystemL12Sound_SetPanEP9lua_State
q_:__ZN16b2PrismaticJoint23InitVelocityConstraintsERK12b2SolverData
b6:__ZN8dmRenderL29RenderScriptConstantBuffer_gcEP9lua_State
PHa:__ZN12dmLiveUpdate19GetMissingResourcesEyPPPc
cpa:__ZN10dmParticle10IsSleepingEPNS_7ContextEj
Dka:_luaB_gcinfo
ZHa:__ZN12dmLiveUpdate18GetCurrentManifestEv
J1:__ZN13b2PulleyJointC2EPK16b2PulleyJointDef
m7a:_emscripten_glUniform4fv__wrapper
xf:_emscripten_glUniform1f
zf:_emscripten_glUniform1i
zUa:_ecp_mul_comb_after_precomp
Gp:__ZN12dmGameObjectL23ScriptInstance_newindexEP9lua_State
bka:_luaX_syntaxerror
Oi:_gmtime_r
QPa:_x509_get_key_usage
_Ga:__ZN5dmGuiL15GuiScriptGetURLEP9lua_State
KQa:_mbedtls_asn1_get_sequence_of
IXa:_ssl_write_encrypt_then_mac_ext
iRa:_mbedtls_mpi_add_abs
ic:_emscripten_glAttachShader
LJ:__ZN10dmGraphicsL19OpenGLSetConstantV4EPNS_7ContextEPKN10Vectormath3Aos7Vector4Ei
I$:__ZN9b2FixtureC2Ev
oe:_emscripten_glGetTexParameterIuiv
zBa:__ZN5dmGui7AddFontEPNS_5SceneEPKcPv
d2:__ZN12b2WheelJointC2EPK15b2WheelJointDef
LRa:_mbedtls_cipher_info_from_type
IU:__ZNK21btConvexInternalShape36getNumPreferredPenetrationDirectionsEv
fpa:__ZN10dmParticleL21UpdateEmitterVelocityEPNS_8InstanceEPNS_7EmitterEPN13dmParticleDDF7EmitterEf
yva:__ZN5dmURI6EncodeEPKcPcj
MH:__ZN10dmGraphics13DeleteProgramEPNS_7ContextEm
M7a:_emscripten_glClearBufferfv__wrapper
Zta:__ZN8dmPPrint7PrinterC2EPci
Aa:invoke_vif
Voa:__ZNSt3__218__insertion_sort_3IRN10dmParticle8SortPredEPNS1_8ParticleEEEvT0_S6_T_
Fa:invoke_vii
MHa:__ZN7dmCrash14InstallHandlerEv
fWa:_sha224_ctx_alloc
gVa:_ecp_mod_koblitz
Lua:__ZN8dmSocket7GetNameEiPNS_7AddressEPt
dCa:__ZN5dmGui10FinalSceneEPNS_5SceneE
g5:__ZNSt3__218__stable_sort_moveIRN8dmRender21RenderListEntrySorterEPjEEvT0_S5_T_NS_15iterator_traitsIS5_E15difference_typeEPNS8_10value_typeE
pq:__ZN12dmGameObject15ResScriptCreateERKN10dmResource20ResourceCreateParamsE
xH:__ZN10dmGraphics17DeleteIndexBufferEm
ms:__ZN5dmDDF12OutputStream13WriteVarInt64Ey
Kta:__ZN9dmMessage16InternalDispatchEyPFvPNS_7MessageEPvES2_b
mw:__ZN12dmGameSystem18CompGuiDeleteWorldERKN12dmGameObject26ComponentDeleteWorldParamsE
tKa:_mbedtls_ctr_drbg_free
r1a:__get_environ
BTa:_ecdh_init_internal
rr:__ZN5dmDDF11InputBufferC2EPKcj
Uca:_global_create6_7731
DBa:__ZN5dmGui8AddLayerEPNS_5SceneEPKc
pA:__ZN12dmGameSystem18CompTileGridUpdateERKN12dmGameObject22ComponentsUpdateParamsERNS0_22ComponentsUpdateResultE
K$:__ZN9b2Fixture7DestroyEP16b2BlockAllocator
pI:__ZN10dmGraphics10NewTextureEPNS_7ContextERKNS_21TextureCreationParamsE
wka:_luaB_yield
gla:_db_sethook
BNa:_ssl_get_remaining_space_in_datagram
cW:__ZN18btTriangleCallbackD2Ev
rh:_glDrawArrays
sWa:_sha384_process_wrap
qNa:_ssl_check_timer
Gi:_glfwSetWindowIconifyCallback
Gw:__ZN12dmGameSystem13CompGuiRenderERKN12dmGameObject22ComponentsRenderParamsE
Fva:__ZN6dmZlib13DeflateBufferEPKvjiPvPFbS2_S1_jE
kKa:__ZN12dmSoundCodec13DeleteDecoderEPNS_12CodecContextEPNS_7DecoderE
Dd:_emscripten_glFramebufferTexture2D
jpa:__ZN10dmParticle19NewPrototypeFromDDFEPN13dmParticleDDF10ParticleFXE
iIa:__ZN12dmLiveUpdate18CreateManifestHashEN15dmLiveUpdateDDF13HashAlgorithmEPKhmPh
LUa:_mbedtls_mpi_shift_l_mod
Zw:__ZN12dmGameSystem15CompLabelCreateERKN12dmGameObject21ComponentCreateParamsE
cI:__ZN10dmGraphics12SetDepthMaskEPNS_7ContextEb
ri:_glfwGetWindowParam
$O:__ZN11btRigidBody10setDampingEff
hg:_emscripten_glVertexAttribI1uiv
WPa:_x509_get_other_name
Qea:_opt_set_ip_add_membership
dma:_math_log
kza:_WebPRescalerExportRowExpandC
cSa:_mbedtls_cipher_get_block_size_12430
mf:_emscripten_glTexParameterIiv
i8:__ZN8dmScriptL15DoLuaTableToDDFEP9lua_StatePKN5dmDDF10DescriptorEPcPS6_S7_iS6_
Vl:__ZN11micropather11MicroPather11GoalReachedEPNS_8PathNodeEPvS3_PNS_8MPVectorIS3_EE
BKa:_mbedtls_entropy_func
mAa:_End
FJa:_start_decoder
qpa:__ZN10dmParticle17GetTileSourcePathEPNS_9PrototypeEj
Nua:__ZN8dmSocket11SetBlockingEib
x_:__ZN16b2PrismaticJoint11EnableLimitEb
KOa:_ssl_check_peer_crt_unchanged
C8a:_emscripten_glShaderBinary__wrapper
hSa:_mbedtls_cipher_auth_decrypt
soa:__ZN7dmInput16RegisterGamepadsEPNS_7ContextEPKN10dmInputDDF11GamepadMapsE
lQa:_x509_memcasecmp
Coa:__ZN10dmParticle14DestroyContextEPNS_7ContextE
ZH:__ZN10dmGraphics11SetViewportEPNS_7ContextEiiii
X3:__ZN8dmRender10TagCompareERKNS_3TagES2_
K7:__ZN8dmScript17DeleteScriptWorldEPNS_11ScriptWorldE
mma:_math_sin
sE:__ZN12dmGameSystem25GetCollectionProxyUrlHashEP9lua_Statei
WS:__ZN16btEmptyAlgorithm10CreateFunc24CreateCollisionAlgorithmER36btCollisionAlgorithmConstructionInfoP17btCollisionObjectS4_
I5a:_emscripten_glVertexAttrib3f__wrapper
Nva:_WebPRescalerGetScaledDimensions
RI:__ZN10dmGraphicsL20OpenGLGetWindowStateEPNS_7ContextENS_11WindowStateE
HS:__ZN31btDefaultCollisionConfiguration25getCollisionAlgorithmPoolEv
A8:__ZN8dmScript14InitializeHashEP9lua_State
E3a:dynCall_viiiiiifi
MJa:__ZN12dmSoundCodecL13WavOpenStreamEPKvjPPv
JB:__ZN12dmGameSystem22ResInputBindingDestroyERKN10dmResource21ResourceDestroyParamsE
K9:__ZN8dmScriptL10Sys_RebootEP9lua_State
mc:_emscripten_glBindBuffer
_D:__ZN12dmGameSystemL15Stream_tostringEP9lua_State
Wda:_buffer_meth_send
ai:_glUseProgram
MJ:__ZN10dmGraphicsL19OpenGLSetConstantM4EPNS_7ContextEPKN10Vectormath3Aos7Vector4Ei
AHa:__ZN7dmCrashL17Crash_GetSysFieldEP9lua_State
vWa:_mbedtls_oid_get_x509_ext_type
NS:__ZN31btConvexPlaneCollisionAlgorithm10CreateFuncD0Ev
EU:__ZNK14btCapsuleShape28calculateSerializeBufferSizeEv
DE:__ZN12dmGameSystemL7SetTextEP9lua_State
ZP:__ZN15btNullPairCache24setOverlapFilterCallbackEP23btOverlapFilterCallback
Qg:_glBindBuffer
jxa:_VP8New
ACa:__ZN5dmGui13GetNodeSlice9EPNS_5SceneEj
Au:__ZN12dmGameSystem17CompCameraDestroyERKN12dmGameObject22ComponentDestroyParamsE
ye:_emscripten_glGetVertexAttribIiv
Vd:_emscripten_glGetBooleanv
$2:__ZN15b2FrictionJointD0Ev
eba:__ZN8dmScriptL13Quat_newindexEP9lua_State
wza:_WebPInitUpsamplers
xZa:_isupper
xq:__ZN11dmHashTableImtE3PutEmRKt
$Ka:_rsa_can_do
aDa:__ZN5dmGuiL17SetBoneTransformsEPNS_5SceneEPNS_12InternalNodeERjR7dmArrayIN11dmTransform9TransformEE
pVa:_mbedtls_gcm_finish
_xa:_HFilter8
j7a:_emscripten_glUniform1fv__wrapper
$0:__ZN23b2GridAndPolygonContact8EvaluateEP10b2ManifoldRK11b2TransformS4_
rVa:_mbedtls_gcm_auth_decrypt
eb:___cxa_find_matching_catch
yz:__ZN12dmGameSystem25CompSpineModelGetPropertyERKN12dmGameObject26ComponentGetPropertyParamsERNS0_12PropertyDescE
jL:__ZN9dmPhysics17NewPolygonShape2DEPNS_9Context2DEPKfj
i5:__ZNSt3__224__buffered_inplace_mergeIRN8dmRender21RenderListEntrySorterEPjEEvT0_S5_S5_T_NS_15iterator_traitsIS5_E15difference_typeES9_PNS8_10value_typeE
n$:__ZN6b2Body13CreateFixtureEPK12b2FixtureDef
I7:__ZN8dmScript26GetScriptWorldContextValueEPNS_11ScriptWorldE
Kg:_gethostbyaddr
PLa:_mbedtls_rsa_check_privkey
QMa:_mbedtls_sha512_ret
gS:__ZN12btConvexCast10CastResultD0Ev
RK:__ZN9dmPhysics30ProcessRayCastResultCallback2D13ReportFixtureEP9b2FixtureiRK6b2Vec2S5_f
qda:_socket_setnonblocking
iy:__ZN12dmGameSystemL18RenderListDispatchERKN8dmRender24RenderListDispatchParamsE_2329
tl:__Z13FinalizeAstarPN11dmExtension6ParamsE
Gqa:__ZN12dmConfigFile10HttpHeaderEPN12dmHttpClient8ResponseEPviPKcS5_
J4a:_emscripten_glClearDepth__wrapper
Pv:__ZN12dmGameSystem10GetGravityEPv
hXa:_ssl_get_ecdh_params_from_cert
hm:__ZN8dmRecord11RecordFrameEPNS_8RecorderEPKvjNS_12BufferFormatE
uq:__GLOBAL__sub_I_properties_ddf_cpp
nga:_lua_getstack
n1a:___emscripten_environ_constructor
PK:__ZN9dmPhysics30ProcessRayCastResultCallback2DD2Ev
g4a:_emscripten_glCheckFramebufferStatus__wrapper
Vp:__ZN12dmGameObjectL27ScriptInstanceResolvePathCBEmPKcj
Lba:__ZN8dmScript12CheckVector4EP9lua_Statei
wga:_luaG_errormsg
tfa:_lua_toboolean
QW:__ZNK15btTriangleShape36getNumPreferredPenetrationDirectionsEv
Q$a:___ftello_unlocked
OSa:_camellia_ctx_alloc
dJ:__ZN10dmGraphicsL24OpenGLDeleteVertexBufferEm
Vm:__ZN12dmGameObject17FindComponentTypeEPNS_8RegisterEmPj
Uoa:__ZNSt3__27__sort5IRN10dmParticle8SortPredEPNS1_8ParticleEEEjT0_S6_S6_S6_S6_T_
_5a:_emscripten_glUniform1i__wrapper
WP:__ZN15btNullPairCache20cleanOverlappingPairER16btBroadphasePairP12btDispatcher
KCa:__ZN5dmGui16SetNodeLineBreakEPNS_5SceneEjb
ySa:_des_crypt_cbc_wrap
wma:_os_getenv
p8a:_emscripten_glStencilOpSeparate__wrapper
Ck:FUNCTION_TABLE_viiiiiifi
EA:__ZN12dmGameSystem16ResBufferPreloadERKN10dmResource21ResourcePreloadParamsE
$C:__ZN12dmGameSystem16ResSpriteDestroyERKN10dmResource21ResourceDestroyParamsE
SE:__ZN12dmGameSystem15ParticleFX_PlayEP9lua_State
U$a:_vfscanf
$na:__ZN5dmHIDL18MarkedTextCallbackEPc
Lna:__ZN5dmHID17GetKeyboardPacketEPNS_7ContextEPNS_14KeyboardPacketE
tQ:__ZN6btDbvt24collideTTpersistentStackEPK10btDbvtNodeS2_RNS_8ICollideE
cz:__ZN12dmGameSystem22CompSpineModelNewWorldERKN12dmGameObject23ComponentNewWorldParamsE
W0:__ZN23b2EdgeAndPolygonContact7DestroyEP9b2ContactP16b2BlockAllocator
t2a:_bitshift64Shl
Vva:_deflate_stored
GAa:_GradientFilter
m4a:_emscripten_glGetAttribLocation__wrapper
yB:__ZN12dmGameSystem19ResPreloadGuiScriptERKN10dmResource21ResourcePreloadParamsE
sf:_emscripten_glTexStorage2D
ik:FUNCTION_TABLE_vif
Cma:_luaopen_table
rQ:__ZN16btDbvtBroadphase7collideEP12btDispatcher
zca:_meth_getpeername
IV:__ZNK13btConvexShape44localGetSupportVertexWithoutMarginNonVirtualERK9btVector3
kB:__ZN12dmGameSystem17ResFactoryDestroyERKN10dmResource21ResourceDestroyParamsE
cUa:_mbedtls_ecp_get_type
II:__ZN10dmGraphicsL16OpenGLNewContextERKNS_13ContextParamsE
FE:__ZN12dmGameSystemL14GetTextMetricsEP9lua_State
Hr:__ZN5dmDDF11InputBuffer8ReadBoolEPb
b0a:_clearerr
rBa:__ZN5dmGui16GetSceneUserDataEPNS_5SceneE
W1a:__ZSt13get_terminatev
O7a:b45
$wa:_ExportAlphaRGBA4444
w8a:b47
ut:__ZN17dmResourceArchive22CacheLiveUpdateEntriesEPKNS_21ArchiveIndexContainerES2_PNS_17LiveUpdateEntriesE
R6a:b41
P6a:b40
Isa:__ZL16stbi__idct_blockPhiPs
S6a:b42
kxa:_VP8Delete
Ua:invoke_viiiiiifi
ZUa:_mbedtls_ecp_group_load
y8a:b49
x8a:b48
SW:__ZNK15btTriangleShape14getNumVerticesEv
cq:__ZN12dmGameObject19ResCollectionCreateERKN10dmResource20ResourceCreateParamsE
vta:__ZN8dmMemory11AlignedFreeEPv
Q8a:_emscripten_glTexStorage3D__wrapper
zo:__ZN12dmGameObject11PropertySetC2Ev
BD:__ZN12dmGameSystem14GetStreamValueIxEEdPvi
tX:__ZL10removeleafP6btDbvtP10btDbvtNode
eh:_glCreateProgram
XX:__ZN28btCompoundCollisionAlgorithm26preallocateChildAlgorithmsEP17btCollisionObjectS1_
CIa:__ZN7dmSound10InitializeEPN12dmConfigFile6ConfigEPKNS_16InitializeParamsE
yLa:_mbedtls_pk_rsa_12099
LF:__ZN12dmGameSystemL13Sound_SetGainEP9lua_State
IQa:_mbedtls_asn1_get_bitstring
XTa:_mbedtls_ecdsa_read_signature_restartable
Qma:_str_char
pQa:_mbedtls_pk_ec_12333
fI:__ZN10dmGraphics14SetStencilFuncEPNS_7ContextENS_11CompareFuncEjj
FGa:__ZN5dmGuiL18LuaGetInheritAlphaEP9lua_State
D0:__ZN16b2StackAllocatorD2Ev
nU:__ZNK10btBoxShape12getNumPlanesEv
yh:_glGenBuffers
eca:_luaopen_socket_core
epa:__ZN10dmParticle6UpdateEPNS_7ContextEfPFNS_20FetchAnimationResultEPvyPNS_13AnimationDataEE
Fpa:__ZN5dmRig13PlayAnimationEPNS_11RigInstanceEyNS_11RigPlaybackEfff
Yz:__ZN12dmGameSystem18CompSpriteOnReloadERKN12dmGameObject23ComponentOnReloadParamsE
gy:__ZN12dmGameSystem15CompModelUpdateERKN12dmGameObject22ComponentsUpdateParamsERNS0_22ComponentsUpdateResultE
pqa:__ZN8dmBuffer15GetResultStringENS_6ResultE
hFa:__ZN5dmGuiL14LuaNewTextNodeEP9lua_State
rFa:__ZN5dmGuiL18LuaSetClippingModeEP9lua_State
pMa:_mbedtls_rsa_deduce_private_exponent
Oba:__ZN8dmScript11PushMatrix4EP9lua_StateRKN10Vectormath3Aos7Matrix4E
GQa:_mbedtls_asn1_get_int
joa:__ZN7dmInput10InitKeyMapEv
YA:__ZN12dmGameSystem26ResCollisionObjectRecreateERKN10dmResource22ResourceRecreateParamsE
TH:__ZN10dmGraphics14GetUniformNameEmjPcjPNS_4TypeE
rg:_emscripten_glVertexAttribI4i
Q9:__ZN8dmScript11DoPushTableEP9lua_StateRNS_15PushTableLoggerERKNS_11TableHeaderEPKcS8_jj
So:__ZN12dmGameObject36PropertyContainerGetPropertyCallbackEPNS_10PropertiesEmyRNS_11PropertyVarE
ITa:_mbedtls_ecdh_get_params
txa:_VP8LGetInfo
tC:__ZN12dmGameSystem20ResParticleFXDestroyERKN10dmResource21ResourceDestroyParamsE
Ni:_gmtime
Jf:_emscripten_glUniform3i
IOa:_mbedtls_ssl_check_curve
y1a:___cxa_get_globals_fast
Fsa:__ZN12dmHttpClient20ReopenConnectionPoolEv
KVa:_mbedtls_md_hmac_finish
kM:__ZNK9dmPhysics11MotionState17getWorldTransformER11btTransform
hz:__ZN12dmGameSystemL16DestroyComponentEPNS_15SpineModelWorldEj
cTa:_mbedtls_des_setkey_enc
jya:_VE4
o3:__ZNK12b2ChainShape12GetChildEdgeEP11b2EdgeShapei
ol:__ZN10dmProfiler14RenderProfilerEPN9dmProfile7ProfileEPN10dmGraphics7ContextEPN8dmRender13RenderContextEPNS6_7FontMapE
IH:__ZN10dmGraphics4DrawEPNS_7ContextENS_13PrimitiveTypeEjj
A5:__ZN8dmRender32RenderScript_DisableRenderTargetEP9lua_State
hga:_lua_getupvalue
Xna:__ZN5dmHID16GetGamepadButtonEPNS_13GamepadPacketEj
Qa:invoke_viiiiffffiif
Iw:__ZN12dmGameSystemL13DeleteTextureEPN5dmGui5SceneEPvS3_
O:Math_max
Jl:__ZN3Map8NodeToXYEPvPiS1_
d4a:_emscripten_glIsProgram__wrapper
dI:__ZN10dmGraphics12SetDepthFuncEPNS_7ContextENS_11CompareFuncE
um:__ZN12dmGameObject10InitializeEPNS_8RegisterEPN8dmScript7ContextE
rd:_emscripten_glDrawElements
OJa:__ZN12dmSoundCodec15WavDecodeStreamEPvPcjPj
R5a:_emscripten_glGetBooleanv__wrapper
Pha:_yindex
Ai:_glfwSetCharCallback
Uu:__ZN12dmGameSystem25CompCollectionProxyCreateERKN12dmGameObject21ComponentCreateParamsE
Mqa:__ZN12dmConfigFileL20LoadFromHttpInternalEPKcRKN5dmURI5PartsEiPS1_PPNS_6ConfigE
xs:__ZN10dmResource10HashLengthEN15dmLiveUpdateDDF13HashAlgorithmE
h5a:_emscripten_glClientActiveTexture__wrapper
tpa:__ZN10dmParticle11SetMaterialEPNS_9PrototypeEjPv
yta:__ZN9dmMessage9NewSocketEPKcPy
$La:_mbedtls_rsa_rsaes_pkcs1_v15_decrypt
bT:__ZN33btConvexConcaveCollisionAlgorithm10CreateFuncD0Ev
dw:__ZN12dmGameSystem17CompFactoryUpdateERKN12dmGameObject22ComponentsUpdateParamsERNS0_22ComponentsUpdateResultE
saa:__ZN8dmScriptL8Quat_newEP9lua_State
T6:__ZN11dmHashTableIyPN8dmScript6ModuleEE11SetCapacityEjj
V3:__ZN8dmRender14GetTextMetricsEPNS_7FontMapEPKcfbffPNS_11TextMetricsE
m_:__ZNK16b2PrismaticJoint17GetReactionTorqueEf
o7:__ZN8dmScript16GetScriptContextEP9lua_State
m5a:_emscripten_glDisableVertexAttribArray__wrapper
Tl:__ZN11micropather11MicroPatherD2Ev
wP:__ZN20btAxisSweep3InternalItE7rayTestERK9btVector3S3_R23btBroadphaseRayCallbackS3_S3_
MV:__ZNK23btPolyhedralConvexShape21calculateLocalInertiaEfR9btVector3
Je:_emscripten_glIsRenderbuffer
Bb:___syscall40
fVa:_ecp_use_curve448
Rpa:__ZN5dmRigL16GetPoseTransformERK7dmArrayINS_7RigBoneEERKS0_IN11dmTransform9TransformEES6_j
Cra:_dmHashInit64
X8:__ZN8dmScript14InitializeJsonEP9lua_State
U$:__ZN7b2World10CreateBodyEPK9b2BodyDef
bq:__ZN12dmGameObject20ResCollectionPreloadERKN10dmResource21ResourcePreloadParamsE
Mda:_auxiliar_add2group
sL:__ZN9dmPhysics20NewCollisionObject2DEPNS_7World2DERKNS_19CollisionObjectDataEPPvj
Spa:__ZN5dmRigL18PostEventsIntervalEPNS_11RigInstanceEPKN8dmRigDDF12RigAnimationEfffbf
PZa:_scanexp
aAa:_VP8LColorCacheInit
hja:_luaL_ref
sUa:_mbedtls_ecp_mul_restartable
Oaa:__ZN8dmScriptL5CrossEP9lua_State
e:HEAPU16
Hb:___unlock
Fz:__ZN12dmGameSystem27CompSpineModelResetIKTargetEPNS_19SpineModelComponentEy
SYa:_mbedtls_poly1305_starts
Z1:__ZNK12b2WheelJoint17GetReactionTorqueEf
vqa:__ZN8dmBuffer8GetBytesEjPPvPj
hGa:__ZN5dmGuiL16LuaResetKeyboardEP9lua_State
r3:__ZN8dmRender21FinalizeDebugRendererEPNS_13RenderContextE
eQa:_x509_crt_verify_chain
Zu:__ZN12dmGameSystemL23PreloadCompleteCallbackEPKN10dmResource31PreloaderCompleteCallbackParamsE_1712
bda:_meth_receivefrom
bF:__ZN12dmGameSystemL26Physics_GetJointPropertiesEP9lua_State
Vga:_luaF_freeupval
QQa:_mbedtls_mpi_grow
a3a:dynCall_iiiiiiiiiiii
C$a:_mbsinit
Tza:_ConvertRGB24ToY
Qr:__ZN5dmDDF7Message14ReadBytesFieldEPNS_11LoadContextENS_8WireTypeEPKNS_15FieldDescriptorEPNS_11InputBufferE
MVa:_mbedtls_md_process
YSa:_aes_ctx_free
ME:__ZN12dmGameSystem24LuaModelComp_SetConstantEP9lua_State
UMa:_mbedtls_net_send
lH:__ZN10dmGraphics12ResizeWindowEPNS_7ContextEjj
GIa:__ZN7dmSound11SoundSystemD2Ev
dr:__ZN5dmDDF11LoadMessageEPKvjPKNS_10DescriptorEPPv
kf:_emscripten_glTexImage2D
Pb:__isLeapYear
E5a:_emscripten_glUniform2f__wrapper
Sba:__ZN8dmScript14InitializeZlibEP9lua_State
JZa:_gethostname
SCa:__ZN5dmGui21GetNodeFlipbookAnimIdEPNS_5SceneEj
XH:__ZN10dmGraphics13SetConstantM4EPNS_7ContextEPKN10Vectormath3Aos7Vector4Ei
Foa:__ZN10dmParticleL11InitEmitterEPNS_7EmitterEPN13dmParticleDDF7EmitterEj
Gwa:_jsmn_init
J_a:_qsort
Ba:invoke_viff
Ea:invoke_vifi
bZa:_try_realloc_chunk
bha:_GCTM
UVa:_md5_clone_wrap
Ega:_luaD_growstack
Y3:__ZN8dmRender11NewMaterialEPNS_13RenderContextEmm
h7:__ZN8dmScript3RefEP9lua_Statei
$Ba:__ZN5dmGuiL11UpdateScopeEPNS_12InternalNodeERNS_12StencilScopeES3_PKS2_tttt
nfa:_lua_isstring
lc:_emscripten_glBindAttribLocation
_Ma:_tls1_prf
Fq:__ZN12dmGameObjectL8GetWorldEPNS_16CollectionHandleE
cH:__ZN10dmGraphics10OpenWindowEPNS_7ContextEPNS_12WindowParamsE
EN:__ZN35btSequentialImpulseConstraintSolver33solveGroupCacheFriendlyIterationsEPP17btCollisionObjectiPP20btPersistentManifoldiPP17btTypedConstraintiRK19btContactSolverInfoP12btIDebugDrawP12btStackAlloc
gra:__Z10dmSnPrintfPcmPKcz
IGa:__ZN5dmGuiL24PushPfxCallbackArgumentsEP9lua_StatePv
fL:__ZN9dmPhysics11StepWorld2DEPNS_7World2DERKNS_16StepWorldContextE
fG:__ZN12dmGameSystem20ScriptSpriteRegisterERKNS_16ScriptLibContextE
iF:__ZN12dmGameSystemL16Physics_SetFlipVEP9lua_State
y8:__ZN8dmScript17CheckHashOrStringEP9lua_Statei
dta:__ZN7dmImage4LoadEPKvjbPNS_5ImageE
QHa:__ZN12dmLiveUpdate14VerifyResourceEPN10dmResource8ManifestEPKcjPKN17dmResourceArchive18LiveUpdateResourceE
Q1:__ZN11b2WeldJoint4DumpEv
E$a:_printf
Re:_emscripten_glMatrixMode
P0a:_setsockopt
$Ca:__ZN5dmGui28CalculateParentNodeTransformEPNS_5SceneEPNS_12InternalNodeERN10Vectormath3Aos7Matrix4E
qc:_emscripten_glBindFramebuffer
Toa:__ZNSt3__27__sort4IRN10dmParticle8SortPredEPNS1_8ParticleEEEjT0_S6_S6_S6_T_
t7:__ZN8dmScript15IsValidInstanceEP9lua_State
lpa:__ZN10dmParticle15ReloadPrototypeEPNS_9PrototypeEPKvj
_U:__ZNK15btCompoundShape9getMarginEv
GBa:__ZN5dmGui9GetLayoutEPNS_5SceneE
AIa:__ZN7dmSound26SetDefaultInitializeParamsEPNS_16InitializeParamsE
wia:_luaV_tostring
BLa:_pk_use_ecparams
Tra:__ZN11dmHttpCache5CacheD2Ev
ssa:__ZN12dmHttpClient5WriteEPNS_8ResponseEPKvj
yCa:__ZN5dmGui11GetNodeTypeEPNS_5SceneEj
bra:__ZN5dmDNS8FinalizeEv
cga:_lua_gc
pm:__ZN12dmGameObject11PropertyVarC2EN10Vectormath3Aos7Vector3E
Nda:_auxiliar_checkboolean
Qp:__ZN12dmGameObjectL18GetPropertyDefaultEPNS_10PropertiesEmyRNS_11PropertyVarE
B9:__ZN8dmScript14Sys_GetSysInfoEP9lua_State
WE:__ZN12dmGameSystem24ScriptParticleFXRegisterERKNS_16ScriptLibContextE
SP:__ZN15btNullPairCache37removeOverlappingPairsContainingProxyEP17btBroadphaseProxyP12btDispatcher
bO:__ZN23btDiscreteDynamicsWorld9addActionEP17btActionInterface
bd:_emscripten_glDeleteProgram
u0a:_dummy_465
x6:__ZN8dmRender26DeleteRenderScriptInstanceEPNS_20RenderScriptInstanceE
FP:__ZN20btAxisSweep3InternalItE12updateHandleEtRK9btVector3S3_P12btDispatcher
Bg:_emscripten_glViewport
q_a:_fmt_fp
Oy:__ZN12dmGameSystem21ReHashRenderConstantsEPNS_19CompRenderConstantsEP11HashState32
xOa:_mbedtls_ssl_send_alert_message
jq:__ZN12dmGameObject19ResPrototypePreloadERKN10dmResource21ResourcePreloadParamsE
C0:__ZN16b2StackAllocatorC2Ev
lJa:_point_compare
QKa:_mbedtls_pk_verify_restartable
WN:__ZN23btDiscreteDynamicsWorld14debugDrawWorldEv
bg:_emscripten_glVertexAttrib4f
RA:__ZN12dmGameSystem28ResCollectionFactoryRecreateERKN10dmResource22ResourceRecreateParamsE
Ui:_llvm_log10_f32
nta:__ZL15dmLogInitSocketRi
Pwa:_Dither8x8
vma:_os_exit
pc:_emscripten_glBindFragDataLocation
_e:_emscripten_glSampleCoverage
rda:_socket_listen
sT:__ZN25btSimulationIslandManagerD0Ev
IC:__ZN12dmGameSystem18ResSkeletonPreloadERKN10dmResource21ResourcePreloadParamsE
Lza:_YuvToBgraRow
tH:__ZN10dmGraphics19SetVertexBufferDataEmjPKvNS_11BufferUsageE
LB:__ZN12dmGameSystem15ResLabelPreloadERKN10dmResource21ResourcePreloadParamsE
Mka:_luaB_rawget
zda:_socket_gethostbyaddr
SZ:__ZN9b2Simplex6Solve3Ev
X6a:_emscripten_glTexParameterfv__wrapper
Bqa:__ZN8dmBuffer13GetStreamTypeEjyPNS_9ValueTypeEPj
nja:_luaL_newstate
ax:__ZN12dmObjectPoolIN12dmGameSystem14LabelComponentEE4FreeEjb
mp:__ZN12dmGameObject16Script_SetParentEP9lua_State
zB:__ZN12dmGameSystem18ResCreateGuiScriptERKN10dmResource20ResourceCreateParamsE
xY:__ZN31btConvexPlaneCollisionAlgorithmD2Ev
gH:__ZN10dmGraphics13GetDisplayDpiEPNS_7ContextE
$4:__ZNSt3__213__stable_sortIRN8dmRender21RenderListEntrySorterEPjEEvT0_S5_T_NS_15iterator_traitsIS5_E15difference_typeEPNS8_10value_typeEl
bYa:_mbedtls_x509_time_is_future
VJa:__ZN7dmSound22PlatformIsMusicPlayingEbb
L1:__ZNK13b2PulleyJoint16GetGroundAnchorBEv
p1:__ZN7b2JointD0Ev
U6:__ZN11dmHashTableIyPN8dmScript6ModuleEE3PutEyRKS2_
Wn:__ZN12dmGameObjectL19DoSetBoneTransformsEPNS_16CollectionHandleEPN11dmTransform9TransformEtS4_j
L8a:_emscripten_glVertexAttribI4i__wrapper
kO:__ZNK23btDiscreteDynamicsWorld17getNumConstraintsEv
jA:__ZN12dmGameSystem18CompTileGridCreateERKN12dmGameObject21ComponentCreateParamsE
Ie:_emscripten_glIsProgram
eGa:__ZN5dmGuiL12LuaCloneTreeEP9lua_State
tv:__ZN12dmGameSystem22TriggerEnteredCallbackERKN9dmPhysics12TriggerEnterEPv
Kk:stackSave
vra:_dmHashBuffer64
gI:__ZN10dmGraphics12SetStencilOpEPNS_7ContextENS_9StencilOpES2_S2_
EPa:_mbedtls_ssl_check_sig_hash
Oea:_opt_set_ip_multicast_if
cRa:_mbedtls_mpi_mul_int
Ysa:__ZL20stbi__process_markerP10stbi__jpegi
gc:_emscripten_get_now_is_monotonic
U4a:b29
bAa:_VP8LColorCacheClear
O4a:b27
M4a:b26
K4a:b25
I4a:b24
A4a:b23
z4a:b22
y4a:b21
x4a:b20
L6a:_emscripten_glUniform1ui__wrapper
rV:__ZNK17btConvexHullShape14getNumVerticesEv
i5a:_emscripten_glBindVertexArray__wrapper
Hza:_WebPInitSamplers
Ppa:__ZN5dmRigL12UpdatePlayerEPNS_11RigInstanceEPNS_9RigPlayerEff
KUa:_mbedtls_mpi_sub_mod
Rma:_str_dump
Dia:_luaZ_fill
Xb:_dmDeviceJSOpen
Xt:__ZN11dmLoadQueue11DeleteQueueEPNS_5QueueE
vK:__ZN10dmGraphicsL24OpenGLRunApplicationLoopEPvPFvS0_EPFiS0_E
gia:_luaH_get
fwa:_init_block
bGa:__ZN5dmGuiL12LuaMoveBelowEP9lua_State
m1:__ZN7b2Joint7DestroyEPS_P16b2BlockAllocator
Vs:__ZN10dmResourceL20DoLoadResourceLockedEPNS_16SResourceFactoryEPKcS3_PjP7dmArrayIcE
Goa:__ZN10dmParticle23UpdateEmitterRenderDataEjjPNS_8InstanceEPNS_7EmitterEPN13dmParticleDDF7EmitterE
fy:__ZN12dmGameSystem20CompModelAddToUpdateERKN12dmGameObject26ComponentAddToUpdateParamsE
BC:__ZN12dmGameSystem22ResRenderScriptDestroyERKN10dmResource21ResourceDestroyParamsE
gl:__GLOBAL__sub_I_engine_ddf_cpp
Dsa:__ZN12dmHttpClient13GetDNSChannelEPNS_6ClientE
_C:__ZN12dmGameSystem15ResSpriteCreateERKN10dmResource20ResourceCreateParamsE
$1a:__ZNK10__cxxabiv122__base_class_type_info27has_unambiguous_public_baseEPNS_19__dynamic_cast_infoEPvi
o1:__ZN7b2Joint4DumpEv
nIa:__ZN12dmDeviceNull20DeviceNullDeviceInfoEPvPN7dmSound10DeviceInfoE
S6:__ZN11dmHashTableIyN8dmScript6ModuleEE11SetCapacityEjj
Ksa:__ZL23stbi__resample_row_hv_2PhS_S_ii
vl:__ZL11astar_solveP9lua_State
Kba:__ZN8dmScript11PushVector4EP9lua_StateRKN10Vectormath3Aos7Vector4E
NW:__ZNK15btTriangleShape7getNameEv
vB:__ZN12dmGameSystem19ResGamepadMapCreateERKN10dmResource20ResourceCreateParamsE
Om:__ZN12dmGameObjectL19EraseSwapLevelIndexEPNS_10CollectionEPNS_8InstanceE
kga:_lua_gethook
BJa:_imdct_step3_inner_r_loop
ne:_emscripten_glGetTexParameterIiv
t6a:_emscripten_glEnablei__wrapper
GR:__ZN17btCollisionObject8activateEb
pba:__ZN8dmScriptL11Vector4_unmEP9lua_State
C0a:_inet_ntop
n5:__ZN11dmHashTableIyN10Vectormath3Aos7Vector4EE11SetCapacityEjj
Tq:__ZN12dmGameObject19CompScriptOnMessageERKNS_24ComponentOnMessageParamsE
qB:__ZN12dmGameSystem18ResFontMapRecreateERKN10dmResource22ResourceRecreateParamsE
Mea:_opt_get_linger
$ha:_luaS_newlstr
Vc:_emscripten_glCopyTexImage2D
lu:__ZN12dmGameSystem21RegisterResourceTypesEPN10dmResource16SResourceFactoryEPN8dmRender13RenderContextEPNS_10GuiContextEPN7dmInput7ContextEPNS_14PhysicsContextE
xAa:_VP8ResetProba
hh:_glDeleteBuffers
NZa:_hexfloat
YDa:__ZN5dmGui19GetNodePieFillAngleEPNS_5SceneEj
_Ha:__ZN12dmLiveUpdate10InitializeEPN10dmResource16SResourceFactoryE
FMa:_mbedtls_internal_sha256_process
St:__ZN11dmHashTableIybE3PutEyRKb
hH:__ZN10dmGraphics8GetWidthEPNS_7ContextE
OBa:__ZN5dmGui21GetNodeFlipbookAnimUVEPNS_5SceneEj
ska:_luaB_coresume
pE:__ZN12dmGameSystem31ScriptCollectionFactoryRegisterERKNS_16ScriptLibContextE
RNa:_mbedtls_ssl_write_handshake_msg
Zea:_luaA_pushobject
WH:__ZN10dmGraphics13SetConstantV4EPNS_7ContextEPKN10Vectormath3Aos7Vector4Ei
Y5:__ZN8dmRender28RenderScript_GetWindowHeightEP9lua_State
zF:__ZN12dmGameSystem19ScriptSoundRegisterERKNS_16ScriptLibContextE
OKa:_mbedtls_pk_setup
X7a:_emscripten_glGetAttachedShaders__wrapper
lw:__ZN12dmGameSystem15CompGuiNewWorldERKN12dmGameObject23ComponentNewWorldParamsE
fq:__ZN12dmGameObject21ResCollectionRecreateERKN10dmResource22ResourceRecreateParamsE
Ji:_glfwShowKeyboard
sXa:_ssl_parse_max_fragment_length_ext
i6:__ZN8dmRenderL26RenderScriptInstanceGetURLEP9lua_State
Fl:__ZN3Map12AdjacentCostEPvPN11micropather8MPVectorINS1_9StateCostEEE
uPa:_ssl_write_split
u$a:___ofl_lock
eLa:_rsa_check_pair_wrap
cVa:_ecp_mod_p255
Qga:_DumpFunction
XU:__ZNK15btCompoundShape21calculateLocalInertiaEfR9btVector3
xy:__ZN12dmGameSystem20CompParticleFXUpdateERKN12dmGameObject22ComponentsUpdateParamsERNS0_22ComponentsUpdateResultE
nNa:_mbedtls_ssl_safer_memcmp
pka:_luaB_pairs
mK:__ZN10dmGraphicsL21OpenGLGetTextureWidthEPNS_7TextureE
a5:__ZN8dmRenderL23CollectRenderEntryRangeEPvjmm
Xoa:__ZN10dmParticle13StartInstanceEPNS_7ContextEj
UT:__ZN22SphereTriangleDetector7collideERK9btVector3RS0_S3_RfS4_f
Fb:___syscall63
uXa:_ssl_parse_encrypt_then_mac_ext
Y7:__ZN8dmScript16ClearLuaRefCountEv
A6:__ZN8dmRender34ClearRenderScriptInstanceMaterialsEPNS_20RenderScriptInstanceE
S5a:_emscripten_glGenTextures__wrapper
WW:__ZNK15btTriangleShape12getNumPlanesEv
pK:__ZN10dmGraphicsL30OpenGLGetOriginalTextureHeightEPNS_7TextureE
Nia:_luaL_optlstring
A2:__ZN15b2CircleContactD0Ev
HQa:_mbedtls_asn1_get_mpi
k7a:_emscripten_glUniform2fv__wrapper
VQa:_mbedtls_mpi_lset
p0a:_tanh
eS:__ZN12btConvexCast10CastResult15drawCoordSystemERK11btTransform
j1a:_setlocale
Jw:__ZN12dmGameSystemL14SetTextureDataEPN5dmGui5SceneEPvjjN7dmImage4TypeEPKvS3_
dO:__ZN23btDiscreteDynamicsWorld10setGravityERK9btVector3
zg:_emscripten_glVertexAttribPointer
Rb:__write_sockaddr
fOa:_ssl_next_record_is_in_datagram
Qda:_auxiliar_checkgroup
aO:__ZN23btDiscreteDynamicsWorld16removeConstraintEP17btTypedConstraint
tz:__ZN12dmGameSystem20CompSpineModelRenderERKN12dmGameObject22ComponentsRenderParamsE
pFa:__ZN5dmGuiL15LuaSetBlendModeEP9lua_State
QL:__ZN9dmPhysics7World3DC2EPNS_9Context3DERKNS_14NewWorldParamsE
dj:_pthread_cond_destroy
ZX:__ZN22btCompoundLeafCallbackD0Ev
GQ:__ZN19BroadphaseRayTesterD0Ev
JUa:_ecp_add_mixed
Jga:_lua_resume
Baa:__ZN8dmScriptL14Matrix4_LookAtEP9lua_State
h9a:_emscripten_glTexImage3D__wrapper
VOa:_mbedtls_ssl_parse_finished
Z9:__ZN8dmScript19TimerNewScriptWorldEPNS_11ScriptWorldE
Up:__ZN12dmGameObject17NewScriptInstanceEPNS_15CompScriptWorldEPNS_6ScriptEPNS_8InstanceEt
$pa:__ZN5dmRig7IsValidEPNS_11RigInstanceE
q2:__ZL16b2EdgeSeparationPK14b2PolygonShapeRK11b2TransformiS1_S4_
fva:__ZN5dmSys21FillLanguageTerritoryEPKcPNS_10SystemInfoE
HJ:__ZN10dmGraphicsL19OpenGLReloadProgramEPNS_7ContextEmmm
z6:__ZN8dmRender31AddRenderScriptInstanceMaterialEPNS_20RenderScriptInstanceEPKcPNS_8MaterialE
Bc:_emscripten_glBufferData
PPa:_x509_get_basic_constraints
Cp:__ZN12dmGameObject15Script_PropertyEP9lua_State
N0:__ZN9b2ContactD0Ev
kQa:_x509_string_cmp
mE:__ZN11dmHashTableIyN12dmGameObject22InstancePropertyBufferEE11SetCapacityEjj
Lc:_emscripten_glClearDepth
kU:__ZNK10btBoxShape11getNumEdgesEv
TN:__ZN23btDiscreteDynamicsWorldD0Ev
g8a:_emscripten_glColorPointer__wrapper
ki:_glfwGetJoystickParam
Sra:__ZN11dmHttpCache5CloseEPNS_5CacheE
AU:__ZN14btCapsuleShape15setLocalScalingERK9btVector3
lea:_inet_meth_getpeername
pIa:__ZN12dmDeviceNull14DeviceNullStopEPv
iUa:_mbedtls_ecp_keypair_free
bD:__ZN12dmGameSystem17WebPDecodeTextureEjjiPN10dmGraphics12TextureImage5ImageERPhRj
vxa:_VP8LClear
cOa:_mbedtls_ssl_read_record
lJ:__ZN10dmGraphicsL34OpenGLIsIndexBufferFormatSupportedEPNS_7ContextENS_17IndexBufferFormatE
Bw:__ZN12dmGameSystem14RenderBoxNodesEPN5dmGui5SceneEPKNS0_11RenderEntryEPKN10Vectormath3Aos7Matrix4EPKfPPKNS0_12StencilScopeEjPv
mN:__ZN9dmPhysics11DebugDraw3DC2EPNS_14DebugCallbacksE
CG:__GLOBAL__sub_I_camera_ddf_cpp
qoa:__ZN7dmInputL20ResetGamepadBindingsEPNS_7BindingEPNS_14GamepadBindingEj
tR:__ZN21btCollisionDispatcher22freeCollisionAlgorithmEPv
fla:_db_setfenv
Xo:__ZN12dmGameObject10LuaPushVarEP9lua_StateRKNS_11PropertyVarE
Tqa:__ZN7dmCrypt7DecryptENS_9AlgorithmEPhjPKhj
wm:__ZN12dmGameObject10CollectionC2EPN10dmResource16SResourceFactoryEPNS_8RegisterEj
zya:_TM8uv
WR:__ZN19btSingleRayCallbackD0Ev
qxa:_VP8InitScanline
B7a:_emscripten_glVertexAttribI2i__wrapper
Gka:_luaB_loadfile
aA:__GLOBAL__sub_I_comp_tilegrid_cpp
fE:__ZN8dmScript10PushBufferEP9lua_StateRKNS_10LuaHBufferE
_o:__ZN12dmGameObject27GetComponentUserDataFromLuaEP9lua_StateiPNS_16CollectionHandleEPKcPmPN9dmMessage3URLEPPv
Mx:__ZN7dmArrayImE4PushERKm
BL:__ZN9dmPhysics18SetLinearDamping2DEPvf
nI:__ZN10dmGraphics19SetRenderTargetSizeEPNS_12RenderTargetEjj
Mva:_WebPRescalerInit
MD:__ZN12dmGameSystem14SetStreamValueIsEEvPvid
lka:_luaopen_base
ed:_emscripten_glDeleteTextures
dda:_meth_sendto
CI:__ZN10dmGraphics21GetTextureStatusFlagsEPNS_7TextureE
V5a:_emscripten_glGenBuffers__wrapper
Tfa:_lua_setfield
Bha:_statement
k2a:___muldi3
GOa:_ssl_parse_certificate_verify
xHa:__ZN7dmCrashL17Crash_SetFilePathEP9lua_State
aLa:_rsa_verify_wrap
STa:_ecdsa_verify_restartable
MOa:_mbedtls_ssl_parse_change_cipher_spec
a$:__ZNK11b2RopeJoint16GetReactionForceEf
Aw:__ZN12dmGameSystem16RenderSpineNodesEPN5dmGui5SceneEPKNS0_11RenderEntryEPKN10Vectormath3Aos7Matrix4EPKfPPKNS0_12StencilScopeEjPv
$d:_emscripten_glGetInfoLogARB
$k:__ZN8dmEngine4StepEPNS_6EngineE
tia:_LoadFunction
Tka:_luaB_type
Fs:__ZN10dmResource27NewArchiveIndexWithResourceEPNS_8ManifestEPKhjPKN17dmResourceArchive18LiveUpdateResourceEPKcRPNS4_12ArchiveIndexE
aPa:_ssl_handshake_params_init
U9:__ZN8dmScript16DeleteTimerWorldEPNS_10TimerWorldE
qK:__ZN10dmGraphicsL19OpenGLEnableTextureEPNS_7ContextEjPNS_7TextureE
yp:__ZN12dmGameObject13Script_DeleteEP9lua_State
Ika:_luaB_loadstring
Yda:_buffer_isempty
bM:__ZN9dmPhysics30ProcessRayCastResultCallback3D15addSingleResultERN16btCollisionWorld14LocalRayResultEb
H5a:_emscripten_glUniform3f__wrapper
Mg:_getnameinfo
w9:__ZN8dmScript15Sys_GetSaveFileEP9lua_State
rwa:__ZN19dmConditionVariable4WaitEPNS_17ConditionVariableEPN7dmMutex5MutexE
vEa:__ZN5dmGui8LuaSetIdEP9lua_State
Yk:__ZN8dmEngineL15OnWindowIconifyEPvj
Dq:__ZN11dmHashTableImtE5EraseEm
nEa:__ZN5dmGui9NewScriptEPNS_7ContextE
wE:__ZN12dmGameSystem21FactoryComp_GetStatusEP9lua_State
FEa:__ZN5dmGui14LuaSetPositionEP9lua_State
dZ:__ZNK13b2CircleShape13GetChildCountEv
am:_FacebookExt
Rj:FUNCTION_TABLE_iii
R$:__ZN7b2WorldD2Ev
_qa:__ZN4dLib11IsDebugModeEv
V$a:_arg_n_154
D3a:dynCall_viiiiii
C3a:dynCall_viiiiif
D1a:__ZNK10__cxxabiv116__shim_type_info5noop2Ev
moa:__ZN11dmHashTableIyN7dmInput6ActionEE11SetCapacityEjj
bi:_glVertexAttribPointer
Fp:__ZN12dmGameObjectL20ScriptInstance_indexEP9lua_State
n4:__ZN8dmRender20GetMaterialUserData1EPNS_8MaterialE
Ly:__ZN12dmGameSystem17GetRenderConstantEPNS_19CompRenderConstantsEyPPN8dmRender8ConstantE
qP:__ZN20btAxisSweep3InternalItED2Ev
wca:_meth_getfamily
r0a:_ldexp
jg:_emscripten_glVertexAttribI2iv
WC:__ZN12dmGameSystem20ResSpineModelDestroyERKN10dmResource21ResourceDestroyParamsE
$y:__ZN12dmGameSystem20CompSoundGetPropertyERKN12dmGameObject26ComponentGetPropertyParamsERNS0_12PropertyDescE
Uja:_luaK_prefix
OZa:_decfloat
Ira:_dmHashReverse64
Uy:__ZN12dmGameSystem15CompSoundCreateERKN12dmGameObject21ComponentCreateParamsE
qC:__ZN12dmGameSystem20ResParticleFXPreloadERKN10dmResource21ResourcePreloadParamsE
c:HEAP32
tm:__ZN12dmGameObject13ComponentTypeC2Ev
vNa:_ssl_swap_epochs
mU:__ZNK10btBoxShape9getVertexEiR9btVector3
ug:_emscripten_glVertexAttribI4ubv
dQa:_x509_profile_check_key
dva:__ZN5dmSys16GetResourcesPathEiPPcS0_j
BF:__ZN12dmGameSystemL12Sound_GetRMSEP9lua_State
$Z:__ZN6b2DrawD0Ev
i9a:_emscripten_glBlitFramebuffer__wrapper
WY:__GLOBAL__sub_I_btQuickprof_cpp
NK:__ZN10dmGraphics15JobQueueIsAsyncEv
x3:__ZN8dmRender18NewDisplayProfilesEv
Q_:__ZNK15b2RevoluteJoint13GetJointSpeedEv
s5a:_emscripten_glClear__wrapper
A0:__ZNK20b2SeparationFunction17FindMinSeparationEPiS0_f
u5a:_emscripten_glDepthMask__wrapper
VKa:_mbedtls_pk_rsa
tRa:_mbedtls_int_div_int
mF:__ZN12dmGameSystem22ScriptResourceRegisterERKNS_16ScriptLibContextE
$t:__ZN10dmResource7MapFileEPKcRPvRj
qL:__ZN9dmPhysics24SetCollisionObjectFilterEPvjjtt
wYa:_mbedtls_chacha20_init
LA:__ZN12dmGameSystem17ResCameraRecreateERKN10dmResource22ResourceRecreateParamsE
Oja:_luaK_exp2RK
_2a:dynCall_iiiiiiiii
XQ:__ZN28btHashedOverlappingPairCache18hasDeferredRemovalEv
_0:__ZN22b2GridAndCircleContact7DestroyEP9b2ContactP16b2BlockAllocator
Eca:_meth_receive
Ez:__ZN12dmGameSystemL24UpdateIKPositionCallbackEPN5dmRig8IKTargetE
Bl:__ZL11astar_setupP9lua_State
Bwa:__ZN16dmConnectionPool16GetSSLConnectionEPNS_14ConnectionPoolEj
Bs:__ZN10dmResource19ManifestLoadMessageEPhjRPNS_8ManifestE
Tk:__ZN8dmEngine13OnWindowCloseEPv
NEa:__ZN5dmGui12LuaSetShadowEP9lua_State
L$:__ZN9b2Fixture13CreateProxiesEP12b2BroadPhaseRK11b2Transform
J:Math_exp
gA:__ZN12dmGameSystem15SetLayerVisibleEPNS_17TileGridComponentEjb
sna:_ll_loadfunc
Zr:__ZN5dmDDF11LoadContext12AllocMessageEPKNS_10DescriptorE
Wxa:_TransformAC3
rQa:_x509_check_wildcard
Uka:_luaB_unpack
Tea:_opt_set_ip6_add_membership
yYa:_mbedtls_chacha20_setkey
ALa:_mbedtls_pk_ec
Xj:FUNCTION_TABLE_iiiiiiii
Ob:__inet_pton6_raw
aL:__ZN9dmPhysics10NewWorld2DEPNS_9Context2DERKNS_14NewWorldParamsE
TB:__ZN12dmGameSystem17ResMaterialCreateERKN10dmResource20ResourceCreateParamsE
mOa:_ssl_bitmask_set
P$:__ZN9b2Fixture13SetFilterDataERK8b2Filteri
tHa:__ZN7dmCrash13GetModuleAddrEij
$b:_dmSysGetApplicationPath
fKa:__ZN12dmSoundCodec10NewDecoderEPNS_12CodecContextENS_6FormatEPKvjPPNS_7DecoderE
sH:__ZN10dmGraphics18DeleteVertexBufferEm
qla:_io_pclose
tEa:__ZN5dmGui8LuaGetIdEP9lua_State
$l:__ZN11micropather11MicroPather18SolveForNearStatesEPvPNS_8MPVectorINS_9StateCostEEEf
mv:__ZN12dmGameSystemL16GetGroupBitIndexEPNS_14CollisionWorldEy
RZa:_copysignl
O9:__ZN8dmScript10CheckTableEP9lua_StatePcji
wK:__ZN10dmGraphicsL22OpenGLGetTextureHandleEPNS_7TextureEPPv
IPa:_mbedtls_x509_crt_init
W4:__ZN8dmRender11AddToRenderEPNS_13RenderContextEPNS_12RenderObjectE
WNa:_ssl_check_hs_header
QS:__ZN26btBoxBoxCollisionAlgorithm10CreateFunc24CreateCollisionAlgorithmER36btCollisionAlgorithmConstructionInfoP17btCollisionObjectS4_
Dza:_WebPYuv444ToRgb565C
wQa:_aes_gen_tables
px:__ZN12dmGameSystem20CompLightDeleteWorldERKN12dmGameObject26ComponentDeleteWorldParamsE
dW:__ZN27btContinuousConvexCollisionD0Ev
iZa:___syscall_ret
u6a:_emscripten_glDisablei__wrapper
lma:_math_sinh
_4:__ZN8dmRender14DrawRenderListEPNS_13RenderContextEPNS_9PredicateEPNS_19NamedConstantBufferE
Osa:__ZL20stbi__parse_png_fileP9stbi__pngii
Ih:_glGetShaderInfoLog
Hwa:_WebPFlipBuffer
aq:__ZN12dmGameObject14ResAnimDestroyERKN10dmResource21ResourceDestroyParamsE
Fg:_emscripten_set_main_loop_timing
TMa:_mbedtls_net_recv
GW:__ZN25btTriangleRaycastCallbackD0Ev
JJ:__ZN10dmGraphicsL21OpenGLGetUniformCountEm
nQ:__ZNK16btDbvtBroadphase23getOverlappingPairCacheEv
G_a:_sn_write
V2a:dynCall_iiii
UI:__ZN10dmGraphicsL15OpenGLGetHeightEPNS_7ContextE
KF:__ZN12dmGameSystemL11Sound_PauseEP9lua_State
ISa:_gcm_ctx_free
KD:__ZN12dmGameSystem14SetStreamValueIxEEvPvid
KSa:_camellia_crypt_cbc_wrap
YX:__ZN22btCompoundLeafCallback17ProcessChildShapeEP16btCollisionShapei
le:_emscripten_glGetString
S2a:dynCall_iifif
qMa:_mbedtls_rsa_validate_crt
xaa:__ZN8dmScriptL14Quat_RotationXEP9lua_State
w8:__ZN11dmHashTableIyiE5EraseEy
D8a:_emscripten_glDrawElementsInstanced__wrapper
dBa:__ZN5dmGui8NewSceneEPNS_7ContextEPKNS_14NewSceneParamsE
ny:__ZN12dmGameSystem20CompModelSetPropertyERKN12dmGameObject26ComponentSetPropertyParamsE
P3a:b4
Q3a:b5
R3a:b6
S3a:b7
L3a:b0
M3a:b1
N3a:b2
O3a:b3
yNa:_mbedtls_ssl_write_record
T3a:b8
U3a:b9
o0a:_fcntl
eva:__ZN5dmSys10GetLogPathEPcj
KS:__ZN31btDefaultCollisionConfiguration16getSimplexSolverEv
DP:__ZN20btAxisSweep3InternalItE10printStatsEv
qT:__ZN16btManifoldResultC2EP17btCollisionObjectS1_
GK:__ZN10dmGraphicsL13OnWindowCloseEv
k9a:_emscripten_glTexSubImage3D__wrapper
wL:__ZN9dmPhysics12ApplyForce2DEPNS_9Context2DEPvRKN10Vectormath3Aos7Vector3ERKNS4_6Point3E
wna:__ZN11dmExtension6ParamsC2Ev
bn:__ZNSt3__227__insertion_sort_incompleteIRN12dmGameObject21ComponentTypeSortPredEPtEEbT0_S5_T_
kna:_gctm
fe:_emscripten_glGetProgramiv
DFa:__ZN5dmGuiL17LuaSetTextureDataEP9lua_State
wD:__ZN12dmGameSystem23ResVertexProgramPreloadERKN10dmResource21ResourcePreloadParamsE
Woa:__ZNSt3__227__insertion_sort_incompleteIRN10dmParticle8SortPredEPNS1_8ParticleEEEbT0_S6_T_
vq:__ZN12dmGameObject16CompAnimNewWorldERKNS_23ComponentNewWorldParamsE
Ooa:__ZN10dmParticle9ApplyDragER7dmArrayINS_8ParticleEEPNS_8PropertyEPN13dmParticleDDF8ModifierERKN10Vectormath3Aos4QuatEff
cfa:_lua_newthread
Vua:__ZN11dmHashTableIjPKcE11SetCapacityEjj
jo:__ZN12dmGameObject13DispatchInputEPNS_16CollectionHandleEPNS_11InputActionEj
lN:__ZN12btIDebugDraw10drawSphereEfRK11btTransformRK9btVector3
cCa:__ZN5dmGui9InitSceneEPNS_5SceneE
yRa:_mbedtls_mpi_write_binary_le
jF:__ZN12dmGameSystemL23Physics_SetFlipInternalEP9lua_Stateb
wda:_socket_sendto
XG:__ZN10dmGraphics16GetShaderProgramEPNS_7ContextEPNS_10ShaderDescE
Bfa:_lua_pushnumber
pla:_io_noclose
eKa:__ZN12dmSoundCodec6DeleteEPNS_12CodecContextE
j0:__ZN12b2BroadPhaseD2Ev
oDa:__ZN5dmGui11SetNodeFontEPNS_5SceneEjy
CQa:_mbedtls_aes_crypt_cfb128
a6:__ZN8dmRender29InitializeRenderScriptContextERNS_19RenderScriptContextEPN8dmScript7ContextEj
FL:__ZN9dmPhysics16RequestRayCast2DEPNS_7World2DERKNS_14RayCastRequestE
JW:__ZN28btTriangleConvexcastCallback15processTriangleEP9btVector3ii
Xn:__ZN12dmGameObject11DeleteBonesEPNS_8InstanceE
D8:__ZN8dmScriptL13Script_concatEP9lua_State
uf:_emscripten_glTexSubImage2D
zX:__ZN12btDispatcherD2Ev
iBa:__ZN11dmHashTableIytE11SetCapacityEjj
ema:_math_max
RPa:_x509_get_ext_key_usage
Iia:_luaL_argerror
HIa:__ZN7dmSound12NewSoundDataEPKvjNS_13SoundDataTypeEPPNS_9SoundDataEy
S$:__ZN7b2World18SetContactListenerEP17b2ContactListener
ZGa:__ZN5dmGuiL35GuiScriptGetInstanceContextTableRefEP9lua_State
DZ:__ZN11b2GridShape13ClearCellDataEv
Hma:_maxn
Xp:__ZN12dmGameObject20DeleteScriptInstanceEPNS_14ScriptInstanceE
f_:__ZNK7b2Mat3315GetSymInverse33EPS_
fia:_newkey
G3:__ZN11dmHashTableIjN8dmRender5GlyphEE3PutEjRKS1_
gxa:_EmitAlphaYUV
Gza:_WebPSamplerProcessPlane
jBa:__ZN11dmHashTableIytE3PutEyRKt
dS:__ZN12btConvexCast10CastResult9DebugDrawEf
gva:__ZN5dmSys13GetSystemInfoEPNS_10SystemInfoE
pEa:__ZN5dmGui9SetScriptEPNS_6ScriptEPN8dmLuaDDF9LuaSourceE
KXa:_ssl_write_alpn_ext
Eba:__ZN8dmScriptL10Vector_lenEP9lua_State
uVa:_mbedtls_hmac_drbg_update_ret
Exa:_VP8LDecodeHeader
FY:__ZN15btGjkConvexCast16calcTimeOfImpactERK11btTransformS2_S2_S2_RN12btConvexCast10CastResultE
rl:__Z16AppFinalizeAstarPN11dmExtension9AppParamsE
MO:__ZN34btClosestNotMeConvexResultCallback15addSingleResultERN16btCollisionWorld17LocalConvexResultEb
Or:__ZN5dmDDF7Message9AddStringEPNS_11LoadContextEPKNS_15FieldDescriptorEPKci
W1:__ZNK12b2WheelJoint10GetAnchorAEv
Csa:__ZN12dmHttpClient4PostEPNS_6ClientEPKc
vN:__ZN35btSequentialImpulseConstraintSolverD2Ev
VRa:_add_zeros_and_len_padding
p8:__ZN8dmScript20InitializeExtensionsEPNS_7ContextE
Uh:_glStencilMask
Aza:_WebPYuv444ToBgraC
fJ:__ZN10dmGraphicsL28OpenGLSetVertexBufferSubDataEmjjPKv
gm:__ZN8dmRecord6DeleteEPNS_8RecorderE
gY:__ZZN33btConvexConcaveCollisionAlgorithm21calculateTimeOfImpactEP17btCollisionObjectS1_RK16btDispatcherInfoP16btManifoldResultEN31LocalTriangleSphereCastCallback15processTriangleEP9btVector3ii
Psa:__ZL20stbi__convert_formatPhiijj
be:_emscripten_glGetIntegerv
mT:__ZN13btGhostObject31removeOverlappingObjectInternalEP17btBroadphaseProxyP12btDispatcherS1_
OK:__GLOBAL__sub_I_graphics_ddf_cpp
yv:__ZN12dmGameSystem25CompCollisionObjectUpdateERKN12dmGameObject22ComponentsUpdateParamsERNS0_22ComponentsUpdateResultE
HX:__ZN26btBoxBoxCollisionAlgorithmD2Ev
es:__ZN5dmDDF11LoadContext14GetMemoryUsageEv
VPa:_mbedtls_x509_parse_subject_alt_name
k0a:___expo2
pt:__ZN10dmResource7GetPathEPNS_16SResourceFactoryEPKvPy
uoa:__ZN11dmHashTableIjN7dmInput13GamepadConfigEE3PutEjRKS1_
B3:__ZN8dmRender21GetDisplayProfileDescEPNS_15DisplayProfilesEyRNS_18DisplayProfileDescE
hu:__ZN16dmBlockAllocator13CreateContextEv
kA:__ZN12dmGameSystemL14CreateTileGridEPNS_17TileGridComponentE
xj:emscriptenWebGLComputeImageSize
A0a:_recvfrom
pAa:_WebPSafeCalloc
kha:_luaC_fullgc
Hoa:__ZN10dmParticle13ReHashEmitterEPNS_7EmitterE
_t:__ZN11dmLoadQueue8FreeLoadEPNS_5QueueEPNS_7RequestE
_Wa:_ssl_write_client_key_exchange
R8:__ZN8dmScript14InitializeHttpEPNS_7ContextE
ZWa:_ssl_parse_server_hello_done
gn:__ZN12dmGameObject17ReleaseIdentifierEPNS_10CollectionEPNS_8InstanceE
CJ:__ZN10dmGraphicsL25OpenGLDeleteVertexProgramEm
tx:__ZN12dmGameSystem15CompLightUpdateERKN12dmGameObject22ComponentsUpdateParamsERNS0_22ComponentsUpdateResultE
OV:__ZNK23btPolyhedralConvexShape49batchedUnitVectorGetSupportingVertexWithoutMarginEPK9btVector3PS0_i
Lb:__inet_ntop4_raw
Ixa:_WebPMultARGBRows
El:__ZN3Map17LeastCostEstimateEPvS0_
eQ:__ZN16btDbvtBroadphaseD0Ev
OW:__ZNK15btTriangleShape37localGetSupportingVertexWithoutMarginERK9btVector3
Gxa:_WebPMultARGBRowC
SGa:__ZN5dmGuiL12NodeProxy_eqEP9lua_State
vwa:__ZN16dmConnectionPoolL7DoCloseEPNS_14ConnectionPoolEPNS_10ConnectionE
C6a:_emscripten_glVertexAttribI4iv__wrapper
UE:__ZN12dmGameSystem22ParticleFX_SetConstantEP9lua_State
bH:__ZN10dmGraphics20GetWindowRefreshRateEPNS_7ContextE
NR:__ZN16btCollisionWorld18addCollisionObjectEP17btCollisionObjectss
qLa:_ecdsa_sign_wrap
NLa:_mbedtls_rsa_set_padding
fY:__ZZN33btConvexConcaveCollisionAlgorithm21calculateTimeOfImpactEP17btCollisionObjectS1_RK16btDispatcherInfoP16btManifoldResultEN31LocalTriangleSphereCastCallbackD0Ev
Hq:__ZN12dmGameObject16CancelAnimationsEPNS_16CollectionHandleEPNS_8InstanceEyy
iNa:_mbedtls_ssl_psk_derive_premaster
mUa:_mbedtls_ecp_is_zero
co:__ZN12dmGameObject20GetWorldUniformScaleEPNS_8InstanceE
Ev:__ZN12dmGameSystem30CompCollisionObjectSetPropertyERKN12dmGameObject26ComponentSetPropertyParamsE
MLa:_mbedtls_rsa_init
Ywa:_EmitRescaledRGB
q8:__ZN8dmScriptL28InternalInitializeExtensionsEPNS_7ContextE
t1a:__ZnwmRKSt9nothrow_t
d7:__ZN11dmHashTableImbE11SetCapacityEjj
b:HEAP16
UO:__ZNK11btRigidBody28calculateSerializeBufferSizeEv
iua:__ZN9dmProfile13AllocateScopeEPKc
bX:__ZN22btSubsimplexConvexCast16calcTimeOfImpactERK11btTransformS2_S2_S2_RN12btConvexCast10CastResultE
$Va:_sha1_clone_wrap
jt:__ZN10dmResource7ReleaseEPNS_16SResourceFactoryEPv
Gq:__ZN12dmGameObjectL13PlayAnimationEPNS_9AnimWorldEPNS_8InstanceEyyNS_8PlaybackEPfffN8dmEasing5CurveEffPFvS3_yybPvS8_ES8_S8_b
E1:__ZN13b2PulleyJoint4DumpEv
gj:_pthread_getspecific
jJ:__ZN10dmGraphicsL24OpenGLSetIndexBufferDataEmjPKvNS_11BufferUsageE
hS:__ZN17DebugDrawcallbackD2Ev
Am:__ZN12dmGameObject28GetCollectionDefaultCapacityEPNS_8RegisterE
Jz:__ZN12dmGameSystem18CompSpriteNewWorldERKN12dmGameObject23ComponentNewWorldParamsE
SH:__ZN10dmGraphics13ReloadProgramEPNS_7ContextEmmm
UN:__ZN16btCollisionWorld14setDebugDrawerEP12btIDebugDraw
AW:__ZN20btPersistentManifold14clearUserCacheER15btManifoldPoint
Cz:__ZN12dmGameSystemL24UpdateIKInstanceCallbackEPN5dmRig8IKTargetE_2667
foa:__ZN5dmHID12HideKeyboardEPNS_7ContextE
oxa:_VP8DecodeMB
j3:__ZN11b2GearJointD0Ev
Xga:_luaF_newproto
yd:_emscripten_glEndConditionalRender
nGa:__ZN5dmGuiL23LuaGetPerimeterVerticesEP9lua_State
BMa:_mbedtls_sha256_init
tga:_luaG_checkcode
aRa:_mbedtls_mpi_read_string
F:Math_acos
kt:__ZN11dmHashTableImyE5EraseEm
G7:__ZN8dmScript21GetScriptWorldContextEPNS_11ScriptWorldE
sB:__ZN12dmGameSystem24ResFragmentProgramCreateERKN10dmResource20ResourceCreateParamsE
$q:__ZN11dmHashTableIyPKN5dmDDF10DescriptorEE11SetCapacityEjj
tM:__ZN9dmPhysics19GetAngularDamping3DEPv
Ala:_io_type
b1:__ZN23b2GridAndPolygonContact6CreateEP9b2FixtureiS1_iP16b2BlockAllocator
Ema:_foreach
cDa:__ZN5dmGui13SetNodeIsBoneEPNS_5SceneEjb
Ol:__ZN3Map9SolveNearEf
Ry:__ZN12dmGameSystem17CompSoundNewWorldERKN12dmGameObject23ComponentNewWorldParamsE
YZ:__ZN16b2BlockAllocator8AllocateEi
Nr:__ZN5dmDDF7Message15ReadStringFieldEPNS_11LoadContextENS_8WireTypeEPKNS_15FieldDescriptorEPNS_11InputBufferE
w1a:__ZdaPv
a3:__ZN15b2FrictionJoint23InitVelocityConstraintsERK12b2SolverData
u_:__ZNK16b2PrismaticJoint19GetJointTranslationEv
tGa:__ZN5dmGuiL13LuaGetLeadingEP9lua_State
uga:_luaG_typeerror
Ny:__ZN12dmGameSystem19ClearRenderConstantEPNS_19CompRenderConstantsEy
qQ:__ZN16btDbvtBroadphase10printStatsEv
Bq:__ZN12dmGameObject14CompAnimUpdateERKNS_22ComponentsUpdateParamsERNS_22ComponentsUpdateResultE
e6a:_emscripten_glAttachShader__wrapper
FF:__ZN12dmGameSystemL15Sound_GetGroupsEP9lua_State
nma:_math_sqrt
ZD:__ZN12dmGameSystemL9Stream_gcEP9lua_State
dua:__ZN11dmHashTableImPKcE3PutEmRKS1_
u_a:_wcrtomb
e2:__ZN8b2IslandC2EiiiP16b2StackAllocatorP17b2ContactListener
nw:__ZN12dmGameSystem7SetNodeEPN5dmGui5SceneEjPKN8dmGuiDDF8NodeDescE
S1:__ZN11b2WeldJoint23InitVelocityConstraintsERK12b2SolverData
pda:_socket_bind
Dy:__ZN12dmGameSystem22CompParticleFXOnReloadERKN12dmGameObject23ComponentOnReloadParamsE
w1:__ZN12b2MouseJoint23InitVelocityConstraintsERK12b2SolverData
ig:_emscripten_glVertexAttribI2i
sF:__ZN12dmGameSystemL16CheckTableNumberEP9lua_StateiPKc
Xk:__ZN8dmEngineL13OnWindowFocusEPvj
Eva:__ZN6dmZlib13InflateBufferEPKvjPvPFbS2_S1_jE
J2:__ZN15b2ContactSolver24SolvePositionConstraintsEv
ap:__ZN12dmGameObject18GetInstanceFromLuaEP9lua_State
$qa:__ZN4dLib17FeaturesSupportedEj
C5:__ZN8dmRender26RenderScript_EnableTextureEP9lua_State
rsa:__ZN12dmHttpClient6DeleteEPNS_6ClientE
Kra:__ZN11dmHashTableIy16ReverseHashEntryE5EraseEy
cxa:_EmitSampledRGB
pF:__ZN12dmGameSystemL10SetTextureEP9lua_State
r7:__ZN8dmScript11SetInstanceEP9lua_State
_y:__ZN12dmGameSystem18CompSoundOnMessageERKN12dmGameObject24ComponentOnMessageParamsE
H_:__ZNK15b2RevoluteJoint16GetReactionForceEf
eO:__ZNK23btDiscreteDynamicsWorld10getGravityEv
Sr:__ZN5dmDDF7Message10SubMessageEPKNS_15FieldDescriptorE
$_a:___pthread_self_676
Qba:__ZN8dmScriptL6WriterEPvPKvj
Br:__ZN5dmDDF11InputBuffer9ReadFloatEPf
xBa:__ZN5dmGui20DeleteDynamicTextureEPNS_5SceneEy
RUa:_ecp_normalize_mxz
IBa:__ZN5dmGui11GetLayoutIdEPNS_5SceneEtRy
KMa:_mbedtls_sha512_free
K1:__ZNK13b2PulleyJoint16GetGroundAnchorAEv
PE:__GLOBAL__sub_I_script_particlefx_cpp
An:__ZN12dmGameObjectL16DispatchMessagesEPNS_10CollectionEPyj
VLa:_rsa_prepare_blinding
Vq:__ZN12dmGameObject18CompScriptOnReloadERKNS_23ComponentOnReloadParamsE
aUa:_mbedtls_ecp_curve_info_from_grp_id
Gja:_luaK_setreturns
BPa:_mbedtls_ssl_pk_alg_from_sig
CC:__ZN12dmGameSystem23ResRenderScriptRecreateERKN10dmResource22ResourceRecreateParamsE
lU:__ZNK10btBoxShape7getEdgeEiR9btVector3S1_
Nc:_emscripten_glClearStencil
bWa:_sha224_starts_wrap
UBa:__ZN5dmGui36CalculateNodeTransformAndAlphaCachedEPNS_5SceneEPNS_12InternalNodeENS_27CalculateNodeTransformFlagsERN10Vectormath3Aos7Matrix4ERf
SR:__ZN9btHashMapI9btHashPtrP16btCollisionShapeE6insertERKS0_RKS2_
tda:_socket_connect
U3:__ZN8dmRender13LayoutMetricsclEPKcj
ika:_read_long_string
nX:__ZN20btCollisionAlgorithmD0Ev
uqa:__ZN8dmBuffer4CopyEjj
vm:__ZN12dmGameObject11NewRegisterEv
SJ:__ZN10dmGraphicsL18OpenGLSetColorMaskEPNS_7ContextEbbbb
Xg:_glCheckFramebufferStatus
BQa:_mbedtls_aes_crypt_cbc
iVa:_ecp_mpi_set1
gBa:__ZN11dmHashTableIyPvE11SetCapacityEjj
P9:__ZN8dmScript18PushTableLogFormatERNS_15PushTableLoggerEPKcz
FXa:_ssl_write_supported_point_formats_ext
qp:__ZN12dmGameObject27Script_GetWorldScaleUniformEP9lua_State
P2:__ZNK15b2DistanceJoint17GetReactionTorqueEf
Qv:__ZN12dmGameSystem32CompCollisionObjectGetIdentifierEPv
pX:__ZN6btDbvtD2Ev
h3:__ZNK11b2GearJoint17GetReactionTorqueEf
Jma:_tremove
Cka:_luaB_error
m2a:_i64Subtract
c8:__ZN8dmScript15DestroyCallbackEPNS_15LuaCallbackInfoE
PYa:_mbedtls_chachapoly_auth_decrypt
ni:_glfwGetMouseButton
FZ:__ZN14b2PolygonShapeD0Ev
vVa:_mbedtls_hmac_drbg_seed_buf
WEa:__ZN5dmGui14LuaCancelSpineEP9lua_State
cw:__ZN12dmGameSystem22CompFactoryAddToUpdateERKN12dmGameObject26ComponentAddToUpdateParamsE
s_a:_frexpl
IW:__ZN28btTriangleConvexcastCallbackD0Ev
Yfa:_lua_call
MA:__ZN12dmGameSystem27ResCollectionFactoryPreloadERKN10dmResource21ResourcePreloadParamsE
PR:__ZN16btCollisionWorld33performDiscreteCollisionDetectionEv
gya:_SimpleHFilter16i
tW:__ZN33btMinkowskiPenetrationDepthSolverD0Ev
IRa:_mbedtls_mpi_is_prime_ext
Km:__ZN12dmGameObjectL15FinalComponentsEPNS_10CollectionEPNS_8InstanceE
lq:__ZN12dmGameObjectL16AcquireResourcesEPN10dmResource16SResourceFactoryEPNS_8RegisterEPN15dmGameObjectDDF13PrototypeDescEPNS_9PrototypeEPKc
Vha:_luaE_freethread
W8a:_emscripten_glGetActiveUniform__wrapper
oHa:__ZN7dmCrash12GetUserFieldEij
sX:__ZN6btDbvt19optimizeIncrementalEi
RVa:_md5_finish_wrap
P1:__ZNK11b2WeldJoint17GetReactionTorqueEf
DC:__ZN12dmGameSystem16AcquireResourcesEPN10dmResource16SResourceFactoryEPNS_16RigSceneResourceEPKcb
qE:__GLOBAL__sub_I_script_collectionproxy_cpp
Pc:_emscripten_glColorMask
tp:__ZN12dmGameObject15LuaCurveReleaseEPN8dmEasing5CurveE
FN:__ZN35btSequentialImpulseConstraintSolver20solveSingleIterationEiPP17btCollisionObjectiPP20btPersistentManifoldiPP17btTypedConstraintiRK19btContactSolverInfoP12btIDebugDrawP12btStackAlloc
xh:_glFramebufferTexture2D
qs:__ZN5dmDDF12OutputStream11WriteStringEPKc
Lpa:__ZN5dmRig7SetMeshEPNS_11RigInstanceEy
Y_a:___memrchr
Y5a:_emscripten_glDeleteRenderbuffers__wrapper
zY:__ZN31btConvexPlaneCollisionAlgorithm16processCollisionEP17btCollisionObjectS1_RK16btDispatcherInfoP16btManifoldResult
aca:_bit_rol
WUa:_mbedtls_ecp_mul_shortcuts
U8:__ZN8dmScript15InitializeImageEP9lua_State
bca:_bit_ror
aya:_HFilter16i
Epa:__ZN5dmRig10RigContextD2Ev
We:_emscripten_glReleaseShaderCompiler
cba:__ZN8dmScriptL13Quat_tostringEP9lua_State
ir:__ZN5dmDDF17SaveMessageToFileEPKvPKNS_10DescriptorEPKc
AG:__ZN12dmGameSystem18PlatformGetDimModeEv
_p:__ZN12dmGameObject7LuaLoadEPN10dmResource16SResourceFactoryEPN8dmScript7ContextEPN8dmLuaDDF9LuaModuleE
l4:__ZN8dmRender18SetMaterialSamplerEPNS_8MaterialEyjN10dmGraphics11TextureWrapES3_NS2_13TextureFilterES4_
Ug:_glBlendFunc
Sx:__GLOBAL__sub_I_comp_model_cpp
hv:__ZN12dmGameSystem15GetLSBGroupHashEPvt
jXa:_ssl_parse_server_dh_params
Nla:_io_gc
hW:__ZN16btPointCollector20setShapeIdentifiersBEii
eTa:_mbedtls_des3_set2key_enc
GZ:__ZNK14b2PolygonShape5CloneEP16b2BlockAllocator
AP:__ZNK20btAxisSweep3InternalItE23getOverlappingPairCacheEv
SAa:__ZN5dmGui7GetNodeEPNS_5SceneEj
MMa:_mbedtls_sha512_starts_ret
U7a:_emscripten_glUniformMatrix2fv__wrapper
nj:_pthread_mutexattr_settype
Vra:__ZN11dmHttpCache5BeginEPNS_5CacheEPKcS3_PPNS_12CacheCreatorE
fZa:___stdio_close
PCa:__ZN5dmGui19GetNodeTextTrackingEPNS_5SceneEj
ln:__ZN12dmGameObject19AssignInstanceIndexEjPNS_8InstanceE
l$a:_tmpnam
y6:__ZN8dmRender35SetRenderScriptInstanceRenderScriptEPNS_20RenderScriptInstanceEPNS_12RenderScriptE
ql:__Z18AppInitializeAstarPN11dmExtension9AppParamsE
mX:__ZN20btCollisionAlgorithmC2ERK36btCollisionAlgorithmConstructionInfo
uua:__ZN8dmSocket10InitializeEv
fW:__ZN16btPointCollectorD0Ev
WQ:__ZN28btHashedOverlappingPairCache8findPairEP17btBroadphaseProxyS1_
xra:_dmHashString64
bm:__ZN14dmFacebookStubL22Facebook_AppInitializeEPN11dmExtension9AppParamsE
PY:__ZN12gjkepa2_impl3GJK13EncloseOriginEv
iV:__ZN17btConvexHullShapeD0Ev
AFa:__ZN5dmGuiL17LuaCancelFlipbookEP9lua_State
kVa:_mbedtls_gcm_setkey
Zza:_VP8LInitBitReader
Ana:__ZN11dmExtension9PreRenderEPNS_6ParamsE
UWa:_mbedtls_ssl_handshake_client_step
Qu:__GLOBAL__sub_I_comp_collection_proxy_cpp
ODa:__ZN5dmGui14SetNodeXAnchorEPNS_5SceneEjNS_7XAnchorE
hG:__ZN12dmGameSystem21ScriptTileMapRegisterERKNS_16ScriptLibContextE
MT:__ZN11btUnionFindD2Ev
A4:__ZN8dmRender25ConvertMaterialTagsToMaskEPyj
wV:__ZNK17btConvexHullShape8getPlaneER9btVector3S1_i
RC:__ZN12dmGameSystem18ResSoundDataCreateERKN10dmResource20ResourceCreateParamsE
Un:__ZN12dmGameObject6IsBoneEPNS_8InstanceE
Vz:__ZN12dmGameSystemL18RenderListDispatchERKN8dmRender24RenderListDispatchParamsE_2760
YD:__ZN12dmGameSystemL18CopyStreamInternalEPNS_12BufferStreamEjPKS0_jj
A1:__ZNK13b2PulleyJoint10GetAnchorAEv
DIa:__ZN7dmSound11SoundSystemC2Ev
Aya:_VE8uv
Ic:_emscripten_glClearBufferiv
m2:__ZN12b2EPCollider24ComputePolygonSeparationEv
l9:__ZN8dmScript7PushURLEP9lua_StateRKN9dmMessage3URLE
Q5:__ZN8dmRender25RenderScript_SetDepthFuncEP9lua_State
Yq:__ZN12dmGameObjectL16FindPropertyNameEPN15dmPropertiesDDF20PropertyDeclarationsEyPPKcPNS_12PropertyTypeEPPyPbPj
Qi:_llvm_fabs_f32
lx:__ZN12dmGameSystemL28CompLabelGetConstantCallbackEPvyPPN8dmRender8ConstantE
aM:__ZNK16btCollisionWorld17RayResultCallback14needsCollisionEP17btBroadphaseProxy
j2a:___muldsi3
Mma:_auxsort
NB:__ZN12dmGameSystem15ResLabelDestroyERKN10dmResource21ResourceDestroyParamsE
lt:__ZN11dmHashTableIyN10dmResource19SResourceDescriptorEE5EraseEy
nV:__ZNK17btConvexHullShape9serializeEPvP12btSerializer
nca:_global_create
Lf:_emscripten_glUniform3ui
dUa:_mbedtls_ecp_point_init
Fja:_luaK_numberK
TJa:__ZN7dmSound18PlatformInitializeEPN12dmConfigFile6ConfigEPKNS_16InitializeParamsE
b2a:__ZNK10__cxxabiv122__base_class_type_info16search_below_dstEPNS_19__dynamic_cast_infoEPKvib
cNa:_ssl_calc_verify_tls_sha256
Jq:__ZN12dmGameObject24CancelAnimationCallbacksEPNS_16CollectionHandleEPv
Pia:_luaL_newmetatable
yJ:__ZN10dmGraphicsL16OpenGLNewProgramEPNS_7ContextEmm
Qua:__ZN8dmSocket17SetReceiveTimeoutEiy
CYa:_chacha20_inner_block
bba:__ZN8dmScriptL10Matrix4_eqEP9lua_State
ywa:__ZN16dmConnectionPool6ReturnEPNS_14ConnectionPoolEj
c0a:_vprintf
eza:_Predictor12
fza:_Predictor13
cza:_Predictor10
dza:_Predictor11
dAa:_VP8LHtreeGroupsNew
GF:__ZN12dmGameSystemL18Sound_GetGroupNameEP9lua_State
a:HEAP8
bEa:__ZN5dmGui15AnimateNodeHashEPNS_5SceneEjyRKN10Vectormath3Aos7Vector4EN8dmEasing5CurveENS_8PlaybackEffPFvS1_jbPvSA_ESA_SA_
Ut:__ZN10dmResource17ResourcePreloaderD2Ev
xxa:_VP8LDecodeAlphaHeader
h0:__ZN15b2ContactFilter13ShouldCollideEP9b2FixtureiS1_i
$c:_emscripten_glDeleteFramebuffers
bIa:__ZN12dmLiveUpdate11AsyncUpdateEv
np:__ZN12dmGameObject23Script_GetWorldPositionEP9lua_State
LOa:_mbedtls_ssl_write_change_cipher_spec
bea:_do_nothing
Bla:_io_write
zD:__ZN12dmGameSystem24ResVertexProgramRecreateERKN10dmResource22ResourceRecreateParamsE
lL:__ZN9dmPhysics15DeleteHullSet2DEPv
Rca:_timeout_meth_settimeout
b3:__ZN15b2FrictionJoint24SolveVelocityConstraintsERK12b2SolverData
$Xa:_x509_get_current_time
US:__ZN32btSphereSphereCollisionAlgorithm10CreateFunc24CreateCollisionAlgorithmER36btCollisionAlgorithmConstructionInfoP17btCollisionObjectS4_
kva:__ZN5dmSys14ResourceExistsEPKc
bG:__ZN12dmGameSystem22SpriteComp_SetConstantEP9lua_State
u6:__ZN8dmRender23NewRenderScriptInstanceEPNS_13RenderContextEPNS_12RenderScriptE
dia:_resize
HL:__ZN9dmPhysics12SetGravity2DEPNS_7World2DERKN10Vectormath3Aos7Vector3E
RN:__ZN35btSequentialImpulseConstraintSolverC2Ev
DS:__ZN16btManifoldResult20setShapeIdentifiersBEii
DB:__ZN12dmGameSystem16ReleaseResourcesEPN10dmResource16SResourceFactoryEPNS_16GuiSceneResourceE
Dga:_luaD_reallocCI
lwa:_compress_block
u1:__ZN12b2MouseJoint4DumpEv
L7:__ZN8dmScript17UpdateScriptWorldEPNS_11ScriptWorldEf
LPa:_x509_get_version
Qva:_WebPRescalerExport
hka:_skip_sep
KB:__ZN12dmGameSystem23ResInputBindingRecreateERKN10dmResource22ResourceRecreateParamsE
Jea:_opt_set_ip6_multicast_loop
jV:__ZN17btConvexHullShape15setLocalScalingERK9btVector3
MXa:_mbedtls_x509_get_serial
z2:__ZN15b2CircleContact8EvaluateEP10b2ManifoldRK11b2TransformS4_
u3a:dynCall_viifii
LJa:_stb_vorbis_get_samples_short_interleaved
Il:__ZN3Map9ClearPathEv
Bt:__ZN17dmResourceArchive17GetInsertionIndexEPNS_21ArchiveIndexContainerEPKhPi
Mga:_luaD_pcall
Fba:__ZN8dmScriptL12Vector_indexEP9lua_State
fBa:__ZN11dmHashTableIyN5dmGui14DynamicTextureEE11SetCapacityEjj
ux:__ZN12dmGameSystem18CompLightOnMessageERKN12dmGameObject24ComponentOnMessageParamsE
qva:__ZN8dmThread8AllocTlsEv
lk:FUNCTION_TABLE_viffff
Mza:_YuvToArgbRow
Dta:__ZN11dmHashTableIyN9dmMessage13MessageSocketEE5EraseEy
Ww:__ZN12dmObjectPoolIN12dmGameSystem14LabelComponentEE11SetCapacityEj
uB:__ZN12dmGameSystem26ResFragmentProgramRecreateERKN10dmResource22ResourceRecreateParamsE
Jla:_f_read
sx:__ZN12dmGameSystem20CompLightAddToUpdateERKN12dmGameObject26ComponentAddToUpdateParamsE
fQ:__ZN16btDbvtBroadphase11createProxyERK9btVector3S2_iPvssP12btDispatcherS3_
xMa:_mbedtls_internal_sha1_process
Gg:_exit
zfa:_lua_topointer
K3:__ZN8dmRender18SetFontMapMaterialEPNS_7FontMapEPNS_8MaterialE
Uj:FUNCTION_TABLE_iiiii
iQa:_x509_crt_find_parent
g0a:_remove
JMa:_mbedtls_sha512_init
FDa:__ZN5dmGui18PlayNodeParticlefxEPNS_5SceneEjPN10dmParticle23EmitterStateChangedDataE
Yc:_emscripten_glCreateShader
Bka:_luaB_dofile
Ov:__ZN12dmGameSystem10SetGravityEPvRKN10Vectormath3Aos7Vector3E
VUa:_mbedtls_ecp_muladd_restartable
toa:__ZN11dmHashTableIjN7dmInput13GamepadConfigEE11SetCapacityEjj
oL:__ZN9dmPhysics16SetGridShapeHullEPvjjjjNS_9HullFlagsE
tua:__ZN8dmSocket12IsSocketIPv6Ei
O2:__ZNK15b2DistanceJoint16GetReactionForceEf
XM:__ZN9dmPhysics11DebugDraw3D8drawLineERK9btVector3S3_S3_
RLa:_mbedtls_rsa_check_pubkey
m8:__ZN8dmScript18RegisterDDFDecoderEPvPFNS_6ResultEP9lua_StatePKN5dmDDF10DescriptorEPKcE
$M:__ZN12btIDebugDraw12drawTriangleERK9btVector3S2_S2_S2_f
r:inf
tj:_system
lo:__ZN12dmGameObject10GetFactoryEPNS_16CollectionHandleE
at:__ZN10dmResource10FindByHashEPNS_16SResourceFactoryEy
Qz:__ZN12dmGameSystem17CompSpriteDestroyERKN12dmGameObject22ComponentDestroyParamsE
M4:__ZN8dmRender15RenderListBeginEPNS_13RenderContextE
ipa:__ZN10dmParticle13LoadResourcesEPNS_9PrototypeEPN13dmParticleDDF10ParticleFXE
r6:__ZN8dmRenderL16LoadRenderScriptEP9lua_StatePN8dmLuaDDF9LuaSourceEPNS_12RenderScriptE
lp:__ZN12dmGameObject15Script_SetScaleEP9lua_State
kP:__ZN11btRigidBody16addConstraintRefEP17btTypedConstraint
mj:_pthread_mutexattr_init
oo:__ZN12dmGameObject16GetMessageSocketEPNS_16CollectionHandleE
Q8:__ZN8dmScript12Http_RequestEP9lua_State
OFa:__ZN5dmGuiL13LuaSetYAnchorEP9lua_State
Y9:__ZN8dmScript10KillTimersEPNS_10TimerWorldEm
iL:__ZN9dmPhysics13NewBoxShape2DEPNS_9Context2DERKN10Vectormath3Aos7Vector3E
ORa:_mbedtls_cipher_free
ru:__ZN12dmGameSystem15CheckGoInstanceEP9lua_State
LCa:__ZN5dmGui16GetNodeLineBreakEPNS_5SceneEj
iGa:__ZN5dmGuiL13LuaResetNodesEP9lua_State
$h:_glUniformMatrix4fv
oka:_luaB_next
qO:__ZN23btDiscreteDynamicsWorld13removeVehicleEP17btActionInterface
C:Math_cos
Wfa:_lua_setmetatable
ry:__GLOBAL__sub_I_comp_particlefx_cpp
qh:_glDisableVertexAttribArray
Uta:__ZN6dmPath7DirnameEPKcPcj
XKa:_mbedtls_pk_sign_restartable
uTa:_dhm_update_blinding
MW:__ZNK15btTriangleShape21calculateLocalInertiaEfR9btVector3
Fu:__GLOBAL__sub_I_comp_collection_factory_cpp
ev:__ZN12dmGameSystem17SetWorldTransformEPvRKN10Vectormath3Aos6Point3ERKNS2_4QuatE
uM:__ZN9dmPhysics19SetAngularDamping3DEPvf
mo:__ZN12dmGameObject10GetFactoryEPNS_8InstanceE
Ks:__ZN11dmHashTableIyN10dmResource19SResourceDescriptorEE11SetCapacityEjj
OU:__ZNK16btCollisionShape28calculateSerializeBufferSizeEv
rm:__ZN11dmHashTableIyPN12dmGameObject10CollectionEE11SetCapacityEjj
Eia:_luaZ_lookahead
PBa:__ZN5dmGui11RenderSceneEPNS_5SceneERKNS_17RenderSceneParamsEPv
v8:__ZN8dmScript11ReleaseHashEP9lua_Statey
bna:_str_upper
aQ:__ZN15btNullPairCache18hasDeferredRemovalEv
oOa:_ssl_handshake_wrapup_free_hs_transform
hBa:__ZN11dmHashTableIyPN10dmParticle9PrototypeEE11SetCapacityEjj
Z6a:_emscripten_glGetBufferParameteriv__wrapper
zva:__ZN6dmUtf88NextCharEPPKc
Kma:_setn
gka:_inclinenumber
BR:__ZNK17btCollisionObject28calculateSerializeBufferSizeEv
oj:_pthread_once
ca:invoke_fiiiiiiiiii
XO:__ZN11btRigidBodyC2ERKNS_27btRigidBodyConstructionInfoE
Vna:__ZN5dmHID6GetKeyEPNS_14KeyboardPacketENS_3KeyE
j_:__ZNK16b2PrismaticJoint10GetAnchorAEv
uOa:_ssl_parse_record_header
_Aa:__ZN5dmGui18GetDisplayProfilesEPNS_5SceneE
_Oa:_ssl_reset_in_out_pointers
SSa:_aes_crypt_ecb_wrap
dOa:_ssl_consume_current_message
vca:_meth_dirty
oQa:_x509_crt_check_signature
Tt:__ZN10dmResource15DeletePreloaderEPNS_17ResourcePreloaderE
Rya:_VP8LConvertBGRAToBGR_C
Js:__ZN10dmResourceL11HttpContentEPN12dmHttpClient8ResponseEPviPKvj
zEa:__ZN5dmGui20LuaAnimationCompleteEPNS_5SceneEjbPvS2_
Ll:__ZN3Map6SetMapEPi
wya:_DC16NoLeft
Q_a:_cycle
ura:_dmHashBufferNoReverse64
vJ:__ZN10dmGraphicsL10OpenGLDrawEPNS_7ContextENS_13PrimitiveTypeEjj
ss:__ZN10dmResource16FindResourceTypeEPNS_16SResourceFactoryEPKc
Af:_emscripten_glUniform1iv
RZ:__ZN15b2DistanceProxy3SetEPK7b2Shapei
UV:__ZN34btPolyhedralConvexAabbCachingShapeC2Ev
wn:__ZN12dmGameObject5SpawnEPNS_16CollectionHandleEPNS_9PrototypeEPKcyPhjRKN10Vectormath3Aos6Point3ERKNS8_4QuatERKNS8_7Vector3E
upa:__ZN10dmParticle13SetTileSourceEPNS_9PrototypeEjPv
Wd:_emscripten_glGetBufferParameteriv
Cg:_emscripten_memcpy_big
i7a:_emscripten_glUniform4iv__wrapper
Zaa:__ZN8dmScriptL13Matrix4_indexEP9lua_State
t$a:___unlist_locked_file
EQa:_mbedtls_asn1_get_tag
Cv:__ZN12dmGameSystem27CompCollisionObjectOnReloadERKN12dmGameObject23ComponentOnReloadParamsE
DAa:_GradientUnfilter
YJ:__ZN10dmGraphicsL18OpenGLSetStencilOpEPNS_7ContextENS_9StencilOpES2_S2_
Zia:_luaL_callmeta
h3a:dynCall_vffff
cf:_emscripten_glStencilFunc
pS:__ZN16btCollisionWorldC2EP12btDispatcherP21btBroadphaseInterfaceP24btCollisionConfiguration
S_a:_strncmp
Eta:__ZN9dmMessageL13DisposeSocketEPNS_13MessageSocketE
rB:__ZN12dmGameSystem25ResFragmentProgramPreloadERKN10dmResource21ResourcePreloadParamsE
Upa:__ZN5dmRig7GetPoseEPNS_11RigInstanceE
s$:__ZN6b2Body17SynchronizeSingleEP7b2Shapei
Ul:__ZN11micropather11MicroPather5ResetEv
Pna:__ZN5dmHID13SetMarkedTextEPNS_7ContextEPc
VP:__ZN15btNullPairCache23getOverlappingPairArrayEv
$s:__ZN10dmResource14InsertResourceEPNS_16SResourceFactoryEPKcyPNS_19SResourceDescriptorE
fR:__ZN28btHashedOverlappingPairCacheC2Ev
B1:__ZNK13b2PulleyJoint10GetAnchorBEv
Z7a:_emscripten_glGetShaderSource__wrapper
DOa:_mbedtls_ssl_parse_certificate
qX:__ZL17recursedeletenodeP6btDbvtP10btDbvtNode
wX:__ZN6btDbvt6updateEP10btDbvtNodeR12btDbvtAabbMm
Kua:__ZN8dmSocket6SelectEPNS_8SelectorEi
KR:__ZN16btCollisionWorld14debugDrawWorldEv
Mxa:_ApplyAlphaMultiply_16b
iN:__ZN12btIDebugDraw15drawSpherePatchERK9btVector3S2_S2_fffffS2_f
Eq:__ZN12dmGameObject7AnimateEPNS_16CollectionHandleEPNS_8InstanceEyyNS_8PlaybackERNS_11PropertyVarEN8dmEasing5CurveEffPFvS3_yybPvS9_ES9_S9_
p7a:_emscripten_glBindAttribLocation__wrapper
b7:__ZN8dmScript13LuaStackCheck5ErrorEPKcz
lga:_lua_gethookmask
LT:__ZN34btSphereTriangleCollisionAlgorithmC2EP20btPersistentManifoldRK36btCollisionAlgorithmConstructionInfoP17btCollisionObjectS6_b
Wp:__ZN12dmGameObjectL22ScriptInstanceGetURLCBEP9lua_StatePN9dmMessage3URLE
IG:__GLOBAL__sub_I_physics_ddf_cpp
uQ:__ZN6btDbvt8ICollideD2Ev
H2:__ZN15b2ContactSolver24SolveVelocityConstraintsEv
qUa:_mbedtls_ecp_tls_write_point
$3a:_emscripten_glIsBuffer__wrapper
uT:__ZN25btSimulationIslandManager26storeIslandActivationStateEP16btCollisionWorld
kwa:_build_tree
x3a:dynCall_viiifii
XXa:_mbedtls_x509_get_sig
KRa:_mpi_miller_rabin
D5a:b33
rYa:_mbedtls_ccm_star_encrypt_and_tag
gea:_inet_global_tohostname
kya:_HE4
Fea:_opt_set_ip6_unicast_hops
Nsa:__ZL22stbi__check_png_headerP13stbi__context
__a:___lctrans_cur
vO:__ZN23btDiscreteDynamicsWorld26calculateSimulationIslandsEv
Cya:_DC8uvNoTop
gF:__ZN12dmGameSystemL18Physics_GetGravityEP9lua_State
bPa:_ssl_update_checksum_start
E1a:__ZNK10__cxxabiv117__class_type_info9can_catchEPKNS_16__shim_type_infoERPv
Tb:_clock
R1:__ZN11b2WeldJointD0Ev
RP:__ZN15btNullPairCache21removeOverlappingPairEP17btBroadphaseProxyS1_P12btDispatcher
Qj:FUNCTION_TABLE_iifif
cP:__ZN15btTransformUtil22calculateDiffAxisAngleERK11btTransformS2_R9btVector3Rf
FR:__ZN17btCollisionObject18setActivationStateEi
HQ:__ZN19BroadphaseRayTester7ProcessEPK10btDbvtNode
Cl:__ZN3MapD2Ev
iR:__ZN21btCollisionDispatcher13findAlgorithmEP17btCollisionObjectS1_P20btPersistentManifold
gD:__ZN12dmGameSystem20ResTexturePostCreateERKN10dmResource24ResourcePostCreateParamsE
PT:__ZN11btUnionFind11sortIslandsEv
LH:__ZN10dmGraphics10NewProgramEPNS_7ContextEmm
GP:__ZNK20btAxisSweep3InternalItE8quantizeEPtRK9btVector3i
eNa:_ssl_calc_finished_tls_sha384
dz:__ZN12dmObjectPoolIPN12dmGameSystem19SpineModelComponentEE11SetCapacityEj
CVa:_mbedtls_md_free
gO:__ZN23btDiscreteDynamicsWorld12addRigidBodyEP11btRigidBody
mGa:__ZN5dmGuiL23LuaSetPerimeterVerticesEP9lua_State
XQa:_mbedtls_mpi_set_bit
_k:__ZN8dmEngine16GOActionCallbackEyPN7dmInput6ActionEPv
tA:__ZN12dmGameSystem13GetLayerIndexEPKNS_17TileGridComponentEy
rMa:_mbedtls_rsa_validate_params
Kv:__ZN12dmGameSystem12GetJointTypeEPvS0_yRN9dmPhysics9JointTypeE
F8:__ZN8dmScriptL16Script_HashToHexEP9lua_State
Wb:_dmDeviceJSFreeBufferSlots
Zla:_math_exp
tu:__ZN12dmGameSystem15OnWindowIconifyEb
XPa:_mbedtls_x509_crt_parse_der
tP:__ZN20btAxisSweep3InternalItE12destroyProxyEP17btBroadphaseProxyP12btDispatcher
HV:__ZN13btConvexShapeC2Ev
zSa:_des_setkey_enc_wrap
y$a:___ofl_add
_Da:__ZN5dmGui12SetNodePivotEPNS_5SceneEjNS_5PivotE
K4:__ZN8dmRender13RenderContextD2Ev
zm:__ZN12dmGameObject28SetCollectionDefaultCapacityEPNS_8RegisterEj
yL:__ZN9dmPhysics20GetAngularVelocity2DEPNS_9Context2DEPv
XDa:__ZN5dmGui18GetNodeInnerRadiusEPNS_5SceneEj
oma:_math_tanh
na:invoke_iiiiiiii
jC:__ZN12dmGameSystem16AcquireResourcesEPN10dmGraphics7ContextEPN10dmResource16SResourceFactoryEPNS_13ModelResourceEPKc
Bh:_glGenTextures
Vj:FUNCTION_TABLE_iiiiii
ts:__ZN10dmResource16GetCanonicalPathEPKcPc
rP:__ZN12btAxisSweep3D0Ev
HY:__ZN15btGjkEpaSolver28DistanceEPK13btConvexShapeRK11btTransformS2_S5_RK9btVector3RNS_8sResultsE
pea:_inet_tryconnect
UW:__ZNK15btTriangleShape7getEdgeEiR9btVector3S1_
t0:__ZN13b2DynamicTree10InsertLeafEi
XFa:__ZN5dmGuiL13LuaSetEnabledEP9lua_State
UB:__ZN12dmGameSystemL24ResourceReloadedCallbackERKN10dmResource22ResourceReloadedParamsE_3075
vi:_glfwInitJS
GN:___clang_call_terminate
TU:__ZN15btCompoundShapeD0Ev
kFa:__ZN5dmGuiL10LuaGetTextEP9lua_State
O_:__ZN15b2RevoluteJointC2EPK18b2RevoluteJointDef
cYa:_mbedtls_asn1_write_len
bwa:_inflate
x7a:_emscripten_glGetIntegeri_v__wrapper
R7:__ZN8dmScript13RefInInstanceEP9lua_State
dya:_SimpleVFilter16
lqa:__ZN8dmBuffer10NewContextEv
TYa:_mbedtls_poly1305_update
$I:__ZN10dmGraphicsL10OpenGLFlipEPNS_7ContextE
v0a:___munmap
BRa:_mbedtls_mpi_exp_mod
MY:__ZNK12gjkepa2_impl13MinkowskiDiff8Support1ERK9btVector3
Yi:_localtime_r
FTa:_ecdh_free_internal
zza:_WebPYuv444ToRgbaC
GT:__ZN34btSphereTriangleCollisionAlgorithmD2Ev
rj:_strftime
ct:__ZN10dmResource11SetResourceEPNS_16SResourceFactoryEyPvj
X2:__ZNK15b2FrictionJoint10GetAnchorBEv
AN:__ZN35btSequentialImpulseConstraintSolver5resetEv
qDa:__ZN5dmGui14GetNodeLayerIdEPNS_5SceneEj
u2:__ZN23b2ChainAndCircleContact7DestroyEP9b2ContactP16b2BlockAllocator
hza:_MapAlpha
X7:__ZN8dmScript14GetLuaRefCountEv
xI:__ZN10dmGraphics23GetOriginalTextureWidthEPNS_7TextureE
f7:__ZN11dmHashTableImbE5EraseEm
bE:__ZN12dmGameSystemL15Stream_newindexEP9lua_State
MG:__GLOBAL__sub_I_texture_set_ddf_cpp
sma:_os_date
Rra:__ZN11dmHttpCache5FlushEPNS_5CacheE
ega:_lua_next
VSa:_aes_setkey_enc_wrap
gUa:_mbedtls_ecp_point_free
Nv:__ZN12dmGameSystem22GetJointReactionTorqueEPvS0_yRf
jZa:___errno_location
D_a:_strcmp
Ke:_emscripten_glIsShader
oy:__ZN12dmGameSystem25CompModelGetModelResourceEPNS_14ModelComponentE
un:__ZN11dmTransform11MulNoScaleZERKN10Vectormath3Aos7Matrix4ES4_
haa:__ZN8dmScriptL22LuaTimerCallbackArgsCBEP9lua_StatePv
CLa:_pk_get_ecpubkey
FZa:_strlen
ci:_glViewport
a7a:_emscripten_glGetUniformiv__wrapper
Bva:__ZN6dmWebP9DecodeRGBEPKvmPvmm
dla:_db_getmetatable
j_a:_fmt_x
DY:__ZN31btConvexPlaneCollisionAlgorithmC2EP20btPersistentManifoldRK36btCollisionAlgorithmConstructionInfoP17btCollisionObjectS6_bii
n1:__ZN7b2JointC2EPK10b2JointDef
Vf:_emscripten_glUseProgram
PJ:__ZN10dmGraphicsL17OpenGLEnableStateEPNS_7ContextENS_5StateE
$o:__ZN12dmGameObject19GetComponentFromURLERKN9dmMessage3URLE
Jca:_meth_shutdown
n$a:_ferror
L7a:_emscripten_glClearBufferuiv__wrapper
v0:__ZN13b2DynamicTree12DestroyProxyEi
QV:__ZNK34btPolyhedralConvexAabbCachingShape7getAabbERK11btTransformR9btVector3S4_
jQ:__ZN16btDbvtBroadphase7rayTestERK9btVector3S2_R23btBroadphaseRayCallbackS2_S2_
aC:__ZN12dmGameSystem13ResMeshCreateERKN10dmResource20ResourceCreateParamsE
VAa:__ZN5dmGui7ContextD2Ev
a_:__ZN6b2Draw8SetFlagsEj
lGa:__ZN5dmGuiL18LuaGetPieFillAngleEP9lua_State
Eja:_addk
j4:__ZN8dmRender26SetMaterialProgramConstantEPNS_8MaterialEyN10Vectormath3Aos7Vector4E
qv:__ZN12dmGameSystemL9BroadCastIN12dmPhysicsDDF17CollisionResponseEEEvPT_PN12dmGameObject8InstanceEyt
LXa:_ssl_write_session_ticket_ext
AMa:_mbedtls_sha1_ret
zRa:_mbedtls_mpi_write_binary
jta:__ZN6dmJsonL10CopyObjectEPK9jsmntok_tPNS_4NodeEi
Ox:__ZN12dmGameSystemL27CompMeshSetConstantCallbackEPvyPjRKN12dmGameObject11PropertyVarE
Xra:__ZN11dmHttpCache3AddEPNS_5CacheEPNS_12CacheCreatorEPKvj
d_:__ZNK7b2Mat337Solve22ERK6b2Vec2
SKa:_mbedtls_pk_verify
_K:__ZN9dmPhysics15DeleteContext2DEPNS_9Context2DE
qta:__ZL13dmLogDispatchPN9dmMessage7MessageEPv
CUa:_ecp_safe_invert_jac
Oma:_luaopen_string
Sy:__ZN12dmObjectPoolIN12dmGameSystem14SoundComponentEE11SetCapacityEj
$za:_VP8LReadBits
fFa:__ZN5dmGui16InitializeScriptEPN8dmScript7ContextE
Sg:_glBindRenderbuffer
GTa:_mbedtls_ecdh_read_params
fs:__ZN5dmDDF11LoadContext18IncreaseArrayCountEjj
EAa:_HorizontalFilter
$va:_inflateReset2
YB:__ZN12dmGameSystem22BuildVertexDeclarationEPNS_14BufferResourceEPPN10dmGraphics17VertexDeclarationEPjS6_
Pk:getTempRet0
f$a:_fourbyte_strstr
zE:__ZN12dmGameSystem18FactoryComp_CreateEP9lua_State
ILa:_mbedtls_platform_gmtime_r
Xq:__ZN12dmGameObject21CompScriptGetPropertyERKNS_26ComponentGetPropertyParamsERNS_12PropertyDescE
Xva:_deflate_slow
k5:__ZN8dmRender11DrawDebug2dEPNS_13RenderContextE
W0a:___bswap_32_515
iAa:_Reset
XC:__ZN12dmGameSystem21ResSpineModelRecreateERKN10dmResource22ResourceRecreateParamsE
_T:__ZNK10btBoxShape21calculateLocalInertiaEfR9btVector3
uR:__ZN23btCollisionPairCallbackD0Ev
zH:__ZN10dmGraphics28IsIndexBufferFormatSupportedEPNS_7ContextENS_17IndexBufferFormatE
yi:_glfwPollEvents
Wo:__ZN12dmGameObjectL15GetPropertyTypeEP9lua_StateiPPv
ju:__GLOBAL__sub_I_gamesys_cpp
dTa:_mbedtls_des_setkey_dec
$4a:_emscripten_glDeleteShader__wrapper
QI:__ZN10dmGraphicsL19OpenGLIconifyWindowEPNS_7ContextE
cl:__ZN8dmEngine6LaunchEiPPcPFvPNS_6EngineEPvES6_S4_
oaa:__ZN8dmScript15InitializeVmathEP9lua_State
tta:__ZN5dmLZ420DecompressBufferFastEPKvjPvj
yHa:__ZN7dmCrashL18Crash_LoadPreviousEP9lua_State
TNa:_mbedtls_ssl_prepare_handshake_record
ld:_emscripten_glDisable
nwa:_zcalloc
Zo:__ZN12dmGameObject15CompScriptWorldC2Ej
uw:__ZN12dmGameSystem20RigEventDataCallbackEPN5dmGui5SceneEPvS3_
vP:__ZNK20btAxisSweep3InternalItE7getAabbEP17btBroadphaseProxyR9btVector3S4_
ASa:_des_setkey_dec_wrap
b4a:_emscripten_glCreateShader__wrapper
z3:__ZN8dmRender18SetDisplayProfilesEPNS_15DisplayProfilesERNS_21DisplayProfilesParamsE
FX:__ZN30btActivatingCollisionAlgorithmD0Ev
d4:__ZN8dmRender24GetMaterialVertexProgramEPNS_8MaterialE
W6a:_emscripten_glTexParameteri__wrapper
xPa:_mbedtls_ssl_free
Awa:__ZN16dmConnectionPool9GetSocketEPNS_14ConnectionPoolEj
ke:_emscripten_glGetShaderiv
H$:__ZNSt3__227__insertion_sort_incompleteIRPFbRK6b2PairS3_EPS1_EEbT0_S8_T_
GZa:_close
ewa:__tr_init
Cm:__ZN12dmGameObjectL15FinalCollectionEPNS_10CollectionE
eZ:__ZNK13b2CircleShape9TestPointERK11b2TransformRK6b2Vec2
Pu:__ZN12dmGameSystem30CompCollectionFactoryGetStatusEPNS_26CollectionFactoryComponentE
$la:_math_fmod
OI:__ZN10dmGraphicsL16OpenGLOpenWindowEPNS_7ContextEPNS_12WindowParamsE
rU:__ZN21btNodeOverlapCallbackD2Ev
v7:__ZN8dmScript11SetUserTypeEP9lua_StateiPKc
ira:__Z9dmStrlCpyPcPKcm
Wj:FUNCTION_TABLE_iiiiiii
JRa:_mpi_check_small_factors
iJ:__ZN10dmGraphicsL23OpenGLDeleteIndexBufferEm
nna:_loader_C
VF:__ZN12dmGameSystem21SpineComp_SetIKTargetEP9lua_State
QJa:__ZN12dmSoundCodec15WavSkipInStreamEPvjPj
ww:__ZN12dmGameSystem11CompGuiInitERKN12dmGameObject19ComponentInitParamsE
pT:__ZN16btManifoldResult15addContactPointERK9btVector3S2_f
pxa:_GetCoeffs
JFa:__ZN5dmGuiL17LuaGetTextMetricsEP9lua_State
b8:__ZN8dmScript15IsCallbackValidEPNS_15LuaCallbackInfoE
IN:__ZN35btSequentialImpulseConstraintSolver36resolveSingleConstraintRowLowerLimitER11btRigidBodyS1_RK18btSolverConstraint
ZXa:_mbedtls_x509_get_ext
Po:__ZN12dmGameObject23CreatePropertyContainerEPNS_24PropertyContainerBuilderE
p9:__ZN8dmScriptL10URL_concatEP9lua_State
ew:__ZN12dmGameSystemL23PreloadCompleteCallbackEPKN10dmResource31PreloaderCompleteCallbackParamsE_1885
MRa:_mbedtls_cipher_info_from_values
ZOa:_mbedtls_ssl_setup
aX:__ZN22btSubsimplexConvexCastD0Ev
D9:__ZN8dmScript22Sys_GetApplicationInfoEP9lua_State
Gia:_luaZ_read
BX:__ZNK14btQuantizedBvh36walkStacklessQuantizedTreeAgainstRayEP21btNodeOverlapCallbackRK9btVector3S4_S4_S4_ii
e3a:dynCall_vdddddd
TK:__ZN9dmPhysics15ContactListenerD0Ev
Ko:__ZN12dmGameObject13PushFloatTypeEPNS_24PropertyContainerBuilderEyNS_12PropertyTypeEPKf
gX:__ZN22btVoronoiSimplexSolver22closestPtPointTriangleERK9btVector3S2_S2_S2_R25btSubSimplexClosestResult
Cja:_luaK_reserveregs
ppa:__ZN10dmParticle15GetMaterialPathEPNS_9PrototypeEj
D6:__ZN8dmRender16DispatchCallbackEPN9dmMessage7MessageEPv
bta:__ZL19stbi__build_huffmanP13stbi__huffmanPi
fV:__ZN15btCompoundShape13addChildShapeERK11btTransformP16btCollisionShape
ZA:__ZN12dmGameSystem23CollisionObjectResourceaSERKS0_
VS:__ZN16btEmptyAlgorithm10CreateFuncD0Ev
Hqa:__ZN12dmConfigFile11HttpContentEPN12dmHttpClient8ResponseEPviPKvj
PO:__ZN23btDiscreteDynamicsWorld19debugDrawConstraintEP17btTypedConstraint
PM:__ZN9dmPhysics11DebugDraw2D10DrawCircleERK6b2Vec2fRK7b2Color
yK:__ZN10dmGraphicsL10LogGLErrorEiPKci
a9:__ZN8dmScriptL13LuaLoadModuleEP9lua_StatePKcjS3_
xma:_os_remove
S5:__ZN8dmRender25RenderScript_SetStencilOpEP9lua_State
BBa:__ZN5dmGui13AddSpineSceneEPNS_5SceneEPKcPv
v_a:___pthread_self_573
Mj:FUNCTION_TABLE_fiiiiiiiiii
JEa:__ZN5dmGui11LuaSetColorEP9lua_State
hUa:_mbedtls_ecp_group_free
im:__ZN8dmRecord9NewParamsC2Ev
b2:__ZN12b2WheelJoint24SolveVelocityConstraintsERK12b2SolverData
Ica:_meth_settimeout
O5:__ZN8dmRender25RenderScript_SetDepthMaskEP9lua_State
qKa:_block_cipher_df
nFa:__ZN5dmGuiL15LuaGetLineBreakEP9lua_State
NQa:_mbedtls_mpi_init
Cga:_luaD_reallocstack
pWa:_sha384_ctx_alloc
laa:__ZN8dmScript9ToVector4EP9lua_Statei
Es:__ZN10dmResource18VerifyManifestHashEPNS_16SResourceFactoryEPNS_8ManifestEPKhj
h1:__ZN16b2PolygonContact8EvaluateEP10b2ManifoldRK11b2TransformS4_
UQa:_mbedtls_mpi_safe_cond_swap
tva:__ZN8dmThread16GetCurrentThreadEv
HMa:_mbedtls_sha256_finish_ret
Ky:__ZN12dmGameSystem19SetResourcePropertyEPN10dmResource16SResourceFactoryERKN12dmGameObject11PropertyVarEyPPv
osa:__ZN12dmHttpClientL22DefaultHttpContentDataEPNS_8ResponseEPviPKvj
SK:__ZN17b2ContactListenerD2Ev
GGa:__ZN5dmGuiL18LuaSetInheritAlphaEP9lua_State
VZ:__ZNK9b2Simplex16GetWitnessPointsEP6b2Vec2S1_
Jaa:__ZN8dmScriptL19Matrix4_TranslationEP9lua_State
Gf:_emscripten_glUniform2ui
vY:__ZN24btPerturbedContactResult15addContactPointERK9btVector3S2_f
Ex:__ZN12dmObjectPoolIPN12dmGameSystem13MeshComponentEE4FreeEjb
hN:__ZN12btIDebugDraw7drawArcERK9btVector3S2_S2_ffffS2_bf
lba:__ZN8dmScriptL11Vector4_addEP9lua_State
J$:__ZN9b2Fixture6CreateEP16b2BlockAllocatorP6b2BodyPK12b2FixtureDef
m0:__ZN12b2BroadPhase9MoveProxyEiRK6b2AABBRK6b2Vec2
cb:___clock_gettime
Pp:__ZN12dmGameObject9NewScriptEP9lua_StatePN8dmLuaDDF9LuaModuleE
vka:_luaB_cowrap
YG:__ZN10dmGraphics24GetShaderProgramLanguageEPNS_7ContextE
CZa:_strcpy
C7a:_emscripten_glVertexAttribI2ui__wrapper
fSa:_mbedtls_cipher_crypt
rRa:_mbedtls_mpi_shift_l
JKa:_mbedtls_md5_finish_ret
pNa:_mbedtls_ssl_fetch_input
nda:_socket_select
Txa:_TransformUV
bU:__ZNK21btConvexInternalShape9getMarginEv
sRa:_mbedtls_mpi_shift_r
gga:_lua_newuserdata
Vaa:__ZN8dmScriptL12OrthoInverseEP9lua_State
XRa:_add_zeros_padding
Gl:__ZN3Map14PrintStateInfoEPv
Qq:__ZN12dmGameObject15CompScriptFinalERKNS_20ComponentFinalParamsE
lxa:_VP8SetError
k8:__ZN8dmScript13DDFToLuaValueEP9lua_StatePKN5dmDDF15FieldDescriptorEPKcm
F3a:dynCall_viiiiiii
Mw:__ZN12dmGameSystem14CompGuiOnInputERKN12dmGameObject22ComponentOnInputParamsE
ifa:_lua_pushvalue
ZJ:__ZN10dmGraphicsL17OpenGLSetCullFaceEPNS_7ContextENS_8FaceTypeE
oH:__ZN10dmGraphics4FlipEPNS_7ContextE
o2:__Z17b2CollidePolygonsP10b2ManifoldPK14b2PolygonShapeRK11b2TransformS3_S6_
k6a:_emscripten_glGetPointerv__wrapper
HM:__ZN9dmPhysics14DebugCallbacksC2Ev
Yta:__ZN15dmPoolAllocator9DuplicateEPNS_4PoolEPKc
hda:_meth_setpeername
kta:__ZN6dmJson5ParseEPKcPNS_8DocumentE
DHa:__ZN7dmCrashL18Crash_GetExtraDataEP9lua_State
WIa:__ZN7dmSound12GetGroupPeakEyfPfS0_
Yv:__ZN12dmGameSystem20CompEmitterOnMessageERKN12dmGameObject24ComponentOnMessageParamsE
YZa:_strspn
ls:__ZN5dmDDF12OutputStream25WriteVarInt32SignExtendedEi
I5:__ZN8dmRender24RenderScript_DrawDebug3dEP9lua_State
lh:_glDeleteShader
hsa:__ZN17dmHttpCacheVerifyL21HttpSendContentLengthEPN12dmHttpClient8ResponseEPv
a2a:__ZNK10__cxxabiv122__base_class_type_info16search_above_dstEPNS_19__dynamic_cast_infoEPKvS4_ib
Zka:_db_debug
Yba:_bit_bxor
ola:_io_fclose
wj:_usleep
N5:__ZN8dmRender25RenderScript_SetColorMaskEP9lua_State
UU:__ZNK15btCompoundShape7getAabbERK11btTransformR9btVector3S4_
Fd:_emscripten_glFrustum
JE:__ZN12dmGameSystem21LuaModelComp_PlayAnimEP9lua_State
it:__ZN10dmResource6IncRefEPNS_16SResourceFactoryEPv
N_a:_shl
L_a:_shr
gP:__ZN11btRigidBody18proceedToTransformERK11btTransform
VFa:__ZN5dmGuiL11LuaPickNodeEP9lua_State
Jr:__ZN5dmDDF14ScalarTypeSizeEj
KG:__GLOBAL__sub_I_spine_ddf_cpp
Vo:__ZN12dmGameObject8LuaToVarEP9lua_StateiRNS_11PropertyVarE
ht:__ZN10dmResource20GetDescriptorWithExtEPNS_16SResourceFactoryEyPKyjPNS_19SResourceDescriptorE
cva:__ZN5dmSys18GetApplicationPathEPcj
nea:_inet_trycreate
C9:__ZN8dmScript17Sys_GetEngineInfoEP9lua_State
_P:__ZN15btNullPairCache26processAllOverlappingPairsEP17btOverlapCallbackP12btDispatcher
jv:__ZN12dmGameSystemL21CreateCollisionObjectEPNS_14PhysicsContextEPNS_14CollisionWorldEPN12dmGameObject8InstanceEPNS_18CollisionComponentEb
M0a:_isalnum
lAa:_Execute
EMa:_mbedtls_sha256_starts_ret
$S:__ZN33btConvexConcaveCollisionAlgorithm17SwappedCreateFuncD0Ev
AUa:_ecp_comb_recode_scalar
rq:__ZN12dmGameObject17ResScriptRecreateERKN10dmResource22ResourceRecreateParamsE
oB:__ZN12dmGameSystem16ResFontMapCreateERKN10dmResource20ResourceCreateParamsE
isa:__ZN17dmHttpCacheVerifyL9HttpWriteEPN12dmHttpClient8ResponseEjjPv
mKa:__ZN12dmSoundCodec15FindBestDecoderENS_6FormatE
GE:__ZN12dmGameSystem19ScriptLabelFinalizeERKNS_16ScriptLibContextE
yQ:__ZN6btDbvt8ICollide7ProcessEPK10btDbvtNodef
oSa:_chacha20_ctx_free
vu:__ZN12dmGameSystem15OnWindowCreatedEii
nS:__ZThn4_N17DebugDrawcallback28internalProcessTriangleIndexEP9btVector3ii
SL:__ZN9dmPhysics12NewContext3DERKNS_16NewContextParamsE
CY:__ZN31btConvexPlaneCollisionAlgorithm20collideSingleContactERK12btQuaternionP17btCollisionObjectS4_RK16btDispatcherInfoP16btManifoldResult
OQa:_mbedtls_mpi_free
xn:__ZN12dmGameObject23IsCollectionInitializedEPNS_10CollectionE
oM:__ZN9dmPhysics19GetLinearVelocity3DEPNS_9Context3DEPv
zCa:__ZN5dmGui11GetNodeSizeEPNS_5SceneEj
_sa:__ZL22stbi__resample_row_v_2PhS_S_ii
koa:__ZN7dmInput13DeleteContextEPNS_7ContextE
o8a:_emscripten_glStencilFuncSeparate__wrapper
KY:__ZN12gjkepa2_impl3GJK13projectoriginERK9btVector3S3_S3_PfRj
RL:__ZN9dmPhysics7World3DD2Ev
vAa:_VP8DecompressAlphaRows
tca:_meth_bind
Hna:__ZN5dmHID13DeleteContextEPNS_7ContextE
br:__ZN5dmDDF26InternalRegisterDescriptorC2EPNS_10DescriptorE
DCa:__ZN5dmGuiL15GetPropertyDescEy
Cu:__ZN12dmGameSystem16CompCameraUpdateERKN12dmGameObject22ComponentsUpdateParamsERNS0_22ComponentsUpdateResultE
vU:__ZN22btBvhTriangleMeshShape17performConvexcastEP18btTriangleCallbackRK9btVector3S4_S4_S4_
AI:__ZN10dmGraphics14DisableTextureEPNS_7ContextEjPNS_7TextureE
wEa:__ZN5dmGui11LuaGetIndexEP9lua_State
FWa:_mbedtls_oid_get_oid_by_md
Vma:_gmatch
fa:invoke_ii
sD:__ZN12dmGameSystem18ResTileGridPreloadERKN10dmResource21ResourcePreloadParamsE
Ioa:__ZN10dmParticle15DestroyInstanceEPNS_7ContextEj
dC:__ZN12dmGameSystem14ResMeshDestroyERKN10dmResource21ResourceDestroyParamsE
st:__ZN17dmResourceArchive20CmpArchiveIdentifierEPNS_21ArchiveIndexContainerEPhj
G1:__ZN13b2PulleyJoint23InitVelocityConstraintsERK12b2SolverData
Xi:_localtime
SQ:__ZNK28btHashedOverlappingPairCache22getNumOverlappingPairsEv
XF:__ZN12dmGameSystem21SpineComp_SetConstantEP9lua_State
wU:__ZZN22btBvhTriangleMeshShape17performConvexcastEP18btTriangleCallbackRK9btVector3S4_S4_S4_EN21MyNodeOverlapCallbackD0Ev
Ora:__ZN11dmHashTableIyN11dmHttpCache5EntryEE11SetCapacityEjj
wW:__ZZN33btMinkowskiPenetrationDepthSolver12calcPenDepthER22btVoronoiSimplexSolverPK13btConvexShapeS4_RK11btTransformS7_R9btVector3S9_S9_P12btIDebugDrawP12btStackAllocEN20btIntermediateResultD0Ev
NG:__GLOBAL__sub_I_tile_ddf_cpp
jVa:_mbedtls_gcm_init
Oza:_YuvToRgb565Row
Gha:_subexpr
r2a:_bitshift64Ashr
cFa:__ZN5dmGui17LuaGetSpineCursorEP9lua_State
gh:_glCullFace
yZ:__ZNK11b2GridShape15GetCellVerticesEjP6b2Vec2
hEa:__ZN5dmGui13IsNodeEnabledEPNS_5SceneEj
K1a:__ZNK10__cxxabiv117__class_type_info29process_static_type_below_dstEPNS_19__dynamic_cast_infoEPKvi
gG:__GLOBAL__sub_I_script_tilemap_cpp
YFa:__ZN5dmGuiL16LuaGetAdjustModeEP9lua_State
Lm:__ZN12dmGameObjectL13DoAddToUpdateEPNS_10CollectionEPNS_8InstanceE
iA:__ZN12dmGameSystem12GetTileCountEPKNS_17TileGridComponentE
NJ:__ZN10dmGraphicsL16OpenGLSetSamplerEPNS_7ContextEii
aW:__ZNK13btSphereShape37localGetSupportingVertexWithoutMarginERK9btVector3
t5:__ZN8dmRender24RenderScript_EnableStateEP9lua_State
dZa:_internal_memalign
GA:__ZN12dmGameSystemL11BuildBufferEPNS_14BufferResourceE
V4a:_emscripten_glRotatef__wrapper
fua:__ZN9dmProfile5BeginEv
Pma:_str_byte
gca:_global_unload
nRa:_mbedtls_mpi_mod_int
nT:__ZN13btGhostObjectC2Ev
Hu:__ZN12dmGameSystem32CompCollectionFactoryDeleteWorldERKN12dmGameObject26ComponentDeleteWorldParamsE
ada:_meth_receive_7747
ZE:__ZN12dmGameSystem15Physics_RayCastEP9lua_State
uka:_luaB_costatus
Tx:__ZN12dmGameSystem17CompModelNewWorldERKN12dmGameObject23ComponentNewWorldParamsE
I2a:dynCall_fif
_8a:_emscripten_glCompressedTexImage2D__wrapper
aT:__ZN33btConvexConcaveCollisionAlgorithm17SwappedCreateFunc24CreateCollisionAlgorithmER36btCollisionAlgorithmConstructionInfoP17btCollisionObjectS4_
Twa:_VP8InitFrame
R:abort
JGa:__ZN5dmGuiL14HashTableIndexEP9lua_State
I9:__ZN8dmScriptL19Sys_GetConnectivityEP9lua_State
re:_emscripten_glGetTransformFeedbackVarying
N$a:___fseeko_unlocked
CKa:_mbedtls_platform_entropy_poll
B6:__ZN8dmRender9RunScriptEPNS_20RenderScriptInstanceENS_20RenderScriptFunctionEPv
zba:__ZN8dmScriptL11Vector3_unmEP9lua_State
VL:__ZN9dmPhysics10NewWorld3DEPNS_9Context3DERKNS_14NewWorldParamsE
w_a:_pthread_self
FPa:_mbedtls_ssl_get_key_exchange_md_ssl_tls
Lk:stackRestore
NE:__ZN12dmGameSystem26LuaModelComp_ResetConstantEP9lua_State
FH:__ZN10dmGraphics24DisableVertexDeclarationEPNS_7ContextEPNS_17VertexDeclarationE
vL:__ZN9dmPhysics23DeleteCollisionObject2DEPNS_7World2DEPv
x2a:_saveSetjmp
eq:__ZN12dmGameObject20ResCollectionDestroyERKN10dmResource21ResourceDestroyParamsE
rKa:_ctr_drbg_update_internal
iSa:_chachapoly_setkey_wrap
mea:_inet_meth_getsockname
qAa:_WebPSafeFree
Wsa:__ZL31stbi__jpeg_decode_block_prog_dcP10stbi__jpegPsP13stbi__huffmani
Wr:__ZN5dmDDF11LoadContextC2EPcibj
B6a:_emscripten_glVertexAttribI3iv__wrapper
iu:__ZN16dmBlockAllocator13DeleteContextEPNS_7ContextE
Oe:_emscripten_glLinkProgram
zK:__ZN10dmGraphicsL23OpenGLDoSetTextureAsyncEPv
sm:__ZN11dmHashTableIyPN12dmGameObject10CollectionEE3PutEyRKS2_
C_:__ZN16b2PrismaticJoint11EnableMotorEb
L3:__ZN8dmRender18GetFontMapMaterialEPNS_7FontMapE
u7:__ZN8dmScript13GetMainThreadEP9lua_State
MK:__ZN10dmGraphics16JobQueueFinalizeEv
M5a:b36
Hka:_luaB_load
F5:__ZN8dmRender34RenderScript_GetRenderTargetHeightEP9lua_State
Qw:__ZN12dmGameSystem22GuiResolvePathCallbackEPN5dmGui5SceneEPKcj
Fk:FUNCTION_TABLE_viiiiiiiif
ie:_emscripten_glGetShaderPrecisionFormat
Bna:__ZN11dmExtension10PostRenderEPNS_6ParamsE
Gk:FUNCTION_TABLE_viiiiiiiii
t0a:_rand
b8a:_emscripten_glFramebufferRenderbuffer__wrapper
u3:__ZN8dmRender10FlushDebugEPNS_13RenderContextEj
o9:__ZN8dmScriptL12URL_tostringEP9lua_State
x4:__ZNSt3__218__insertion_sort_3IRPFbRKN8dmRender3TagES4_EPS2_EEvT0_S9_T_
po:__ZN12dmGameObject11SetPositionEPNS_8InstanceEN10Vectormath3Aos6Point3E
FSa:_ccm_ctx_free
UAa:__ZN5dmGui13DeleteContextEPNS_7ContextEPN8dmScript7ContextE
GS:__ZN31btDefaultCollisionConfiguration25getPersistentManifoldPoolEv
ND:__ZN12dmGameSystem14SetStreamValueIaEEvPvid
D$:__ZNK13b2DynamicTree5QueryI12b2BroadPhase16b2ContactManagerEEvPT_PT0_RK6b2AABBi
pPa:_mbedtls_ssl_renegotiate
e4:__ZN8dmRender26GetMaterialFragmentProgramEPNS_8MaterialE
mIa:__ZN12dmDeviceNull25DeviceNullFreeBufferSlotsEPv
mJ:__ZN10dmGraphicsL26OpenGLNewVertexDeclarationEPNS_7ContextEPNS_13VertexElementEj
TV:__ZN23btPolyhedralConvexShapeC2Ev
ma:invoke_iiiiiii
sp:__ZN12dmGameObject12Script_GetIdEP9lua_State
jb:___resumeException
QX:__Z11cullPoints2iPfiiPi
t1:__ZNK12b2MouseJoint17GetReactionTorqueEf
Bba:__ZN8dmScriptL10Vector3_eqEP9lua_State
fha:_singlestep
RCa:__ZN5dmGui16GetNodeTextureIdEPNS_5SceneEj
Nwa:_ReconstructRow
c7:__ZN8dmScriptL16DoLuaPPrintTableEP9lua_StateiPN8dmPPrint7PrinterER11dmHashTableImbE
t5a:_emscripten_glClearStencil__wrapper
y4:__ZNSt3__227__insertion_sort_incompleteIRPFbRKN8dmRender3TagES4_EPS2_EEbT0_S9_T_
qPa:_ssl_start_renegotiation
wNa:_ssl_get_remaining_payload_in_datagram
zh:_glGenFramebuffers
Q1a:__ZNK10__cxxabiv120__si_class_type_info27has_unambiguous_public_baseEPNS_19__dynamic_cast_infoEPvi
Mz:__ZN12dmGameSystem16CompSpriteCreateERKN12dmGameObject21ComponentCreateParamsE
on:__ZN11dmHashTableIyyE11SetCapacityEjj
s1:__ZNK12b2MouseJoint16GetReactionForceEf
Eha:_block
xUa:_ecp_pick_window_size
dA:__ZN12dmGameSystem17GetTileGridBoundsEPKNS_17TileGridComponentEPiS3_S3_S3_
ETa:_mbedtls_ecdh_free
Rga:_luaF_newCclosure
eVa:_ecp_mod_p448
Uc:_emscripten_glCompressedTexSubImage2D
i0:__ZN12b2BroadPhaseC2Ev
Iya:_VP8InitClipTables
Oca:_timeout_open
lUa:_mbedtls_ecp_set_zero
T0:__ZN23b2EdgeAndPolygonContact8EvaluateEP10b2ManifoldRK11b2TransformS4_
G8a:_emscripten_glGetActiveUniformName__wrapper
XGa:__ZN5dmGuiL28GuiScriptInstanceResolvePathEP9lua_State
JNa:_ssl_mfl_code_to_length
J0a:___bswap_32
au:__ZN10dmResource9UnmapFileERPvj
iX:__ZN22btVoronoiSimplexSolver7closestER9btVector3
XB:__ZN12dmGameSystem18ResMaterialPreloadERKN10dmResource21ResourcePreloadParamsE
GVa:_mbedtls_md_finish
B7:__ZN8dmScript6GetURLEP9lua_StateRN9dmMessage3URLE
yY:__ZN31btConvexPlaneCollisionAlgorithmD0Ev
G5:__ZN8dmRender18RenderScript_ClearEP9lua_State
k_:__ZNK16b2PrismaticJoint10GetAnchorBEv
a0a:___string_read
M1:__ZNK11b2WeldJoint10GetAnchorAEv
oLa:_eckey_free_wrap
Et:__ZN17dmResourceArchive18SetNewArchiveIndexEPNS_21ArchiveIndexContainerEPNS_12ArchiveIndexEb
lia:_luaH_set
c2:__ZN12b2WheelJoint24SolvePositionConstraintsERK12b2SolverData
Wm:__ZN12dmGameObject21RegisterComponentTypeEPNS_8RegisterERKNS_13ComponentTypeE
Jh:_glGetShaderiv
ZFa:__ZN5dmGuiL16LuaSetAdjustModeEP9lua_State
PMa:_mbedtls_sha512_finish_ret
Du:__ZN12dmGameSystem19CompCameraOnMessageERKN12dmGameObject24ComponentOnMessageParamsE
tJa:_start_page_no_capturepattern
x9:__ZN8dmScript22Sys_GetApplicationPathEP9lua_State
t8:__ZN8dmScript6IsHashEP9lua_Statei
Zl:__ZN11micropather9PathCache5SolveEPvS1_PNS_8MPVectorIS1_EEPf
tZa:___toread
J$a:_fputc
nJa:_vorbis_deinit
h2a:___cxa_is_pointer_type
kMa:_mbedtls_rsa_rsassa_pss_verify_ext
KC:__ZN12dmGameSystem18ResSkeletonDestroyERKN10dmResource21ResourceDestroyParamsE
JO:__ZN16btCollisionWorld20ConvexResultCallbackD2Ev
Jia:_luaL_error
aG:__ZN12dmGameSystem19SpriteComp_SetVFlipEP9lua_State
Yp:__ZN12dmGameObject20PropertiesToLuaTableEPNS_8InstanceEPNS_6ScriptEPNS_10PropertiesEP9lua_Statei
NA:__ZN12dmGameSystemL21AcquireCollectionDescEPN10dmResource16SResourceFactoryEPN15dmGameSystemDDF21CollectionFactoryDescEPNS_25CollectionFactoryResourceE
Q0:__ZN22b2EdgeAndCircleContactD0Ev
Pg:_glAttachShader
Wra:__ZN11dmHttpCache5BeginEPNS_5CacheEPKcjPPNS_12CacheCreatorE
mEa:__ZN5dmGui4NodeaSERKS0_
yy:__ZN12dmGameSystem22FetchAnimationCallbackEPvyPN10dmParticle13AnimationDataE
roa:__ZN7dmInput13DeleteBindingEPNS_7BindingE
sj:_sysconf
pva:__ZN8dmThread4JoinEm
cca:_bit_bswap
gHa:__ZN7dmCrash12SetUserFieldEjPKc
DYa:_chacha20_quarter_round
G3a:dynCall_viiiiiiii
Ne:_emscripten_glLineWidth
XV:__ZNK13btSphereShape21calculateLocalInertiaEfR9btVector3
Aca:_meth_getsockname
d0:__ZN7b2World9DrawJointEP7b2Joint
v2:__ZN24b2ChainAndPolygonContact8EvaluateEP10b2ManifoldRK11b2TransformS4_
nB:__ZN12dmGameSystem17ResFontMapPreloadERKN10dmResource21ResourcePreloadParamsE
Lya:_VP8LColorIndexInverseTransformAlpha
f3:__ZNK11b2GearJoint10GetAnchorBEv
X8a:_emscripten_glGetActiveAttrib__wrapper
v$a:___ofl_unlock
R0:__ZN22b2EdgeAndCircleContact6CreateEP9b2FixtureiS1_iP16b2BlockAllocator
v6a:_emscripten_glClampColor__wrapper
sI:__ZN10dmGraphics15SetTextureAsyncEPNS_7TextureERKNS_13TextureParamsE
hE:__GLOBAL__sub_I_script_collection_factory_cpp
ix:__ZN12dmGameSystem23CompLabelGetTextMetricsEPKNS_14LabelComponentERN8dmRender11TextMetricsE
noa:__ZN11dmHashTableIyN7dmInput6ActionEE3PutEyRKS1_
OF:__GLOBAL__sub_I_script_spine_model_cpp
_:invoke_fiii
o8:__ZN11dmHashTableImPFN8dmScript6ResultEP9lua_StatePKN5dmDDF10DescriptorEPKcEE3PutEmRKSB_
FU:__ZNK14btCapsuleShape9serializeEPvP12btSerializer
BVa:_mbedtls_md_init
Apa:__GLOBAL__sub_I_rig_cpp
Xx:__ZN12dmGameSystemL13CreateGOBonesEPNS_10ModelWorldEPNS_14ModelComponentE
hA:__ZN12dmGameSystem15SetTileGridTileEPNS_17TileGridComponentEjiijbb
q0a:_modf
kx:__ZN12dmGameSystem20CompLabelGetPropertyERKN12dmGameObject26ComponentGetPropertyParamsERNS0_12PropertyDescE
j5:__ZN8dmRender11DrawDebug3dEPNS_13RenderContextE
Dc:_emscripten_glCheckFramebufferStatus
BSa:_des_ctx_alloc
Uda:_buffer_meth_getstats
$U:__ZNK15btCompoundShape28calculateSerializeBufferSizeEv
ue:_emscripten_glGetUniformLocation
O3:__ZN8dmRender14DrawTextParamsC2Ev
gCa:__ZN5dmGui11UpdateSceneEPNS_5SceneEf
Sq:__ZN12dmGameObject16CompScriptUpdateERKNS_22ComponentsUpdateParamsERNS_22ComponentsUpdateResultE
gfa:_lua_insert
WL:__ZN9dmPhysics13DeleteWorld3DEPNS_9Context3DEPNS_7World3DE
yGa:__ZN5dmGuiL26LuaGetFlipbookPlaybackRateEP9lua_State
EWa:_oid_md_alg_from_asn1
spa:__ZN10dmParticle13GetTileSourceEPNS_9PrototypeEj
Fr:__ZN5dmDDF11InputBuffer9ReadInt64EPx
UJ:__ZN10dmGraphicsL18OpenGLSetDepthFuncEPNS_7ContextENS_11CompareFuncE
xO:__ZN23btDiscreteDynamicsWorld28internalSingleStepSimulationEf
h9:__ZN8dmScript7URL_newEP9lua_State
xN:__ZN18btConstraintSolver12prepareSolveEii
dVa:_ecp_use_curve25519
ja:invoke_iiii
_u:__ZN12dmGameSystem25CompCollectionProxyRenderERKN12dmGameObject22ComponentsRenderParamsE
Vfa:_lua_rawseti
Te:_emscripten_glPixelStorei
wfa:_lua_tocfunction
ia:invoke_iiif
rz:__ZN12dmGameSystem25CompSpineModelAddToUpdateERKN12dmGameObject26ComponentAddToUpdateParamsE
tL:__ZN9dmPhysics20NewCollisionObject2DEPNS_7World2DERKNS_19CollisionObjectDataEPPvPN10Vectormath3Aos7Vector3EPNS8_4QuatEj
Yxa:_HFilter16
WDa:__ZN5dmGui24GetNodePerimeterVerticesEPNS_5SceneEj
Mna:__ZN5dmHID13GetTextPacketEPNS_7ContextEPNS_10TextPacketE
dk:FUNCTION_TABLE_vf
ex:__ZN12dmGameSystem15CompLabelRenderERKN12dmGameObject22ComponentsRenderParamsE
sMa:_mbedtls_rsa_deduce_crt
eu:__GLOBAL__sub_I_resource_ddf_cpp
TEa:__ZN5dmGui20LuaGetScreenPositionEP9lua_State
l8:__ZN8dmScript7PushDDFEP9lua_StatePKN5dmDDF10DescriptorEPKcb
ana:_str_sub
de:_emscripten_glGetPointerv
R6:__ZN8dmScript10NewContextEPN12dmConfigFile6ConfigEPN10dmResource16SResourceFactoryEb
Q0a:___inet_aton
CQ:__ZN20BroadphaseAabbTesterD0Ev
eJ:__ZN10dmGraphicsL25OpenGLSetVertexBufferDataEmjPKvNS_11BufferUsageE
EZ:__ZN11b2GridShape11SetCellHullEP6b2BodyjjjNS_9CellFlagsE
jl:__ZN15dmEngineService6UpdateEPNS_13EngineServiceEPN9dmProfile7ProfileE
lj:_pthread_mutexattr_destroy
MPa:_x509_get_dates
JCa:__ZN5dmGui11SetNodeTextEPNS_5SceneEjPKc
D7a:_emscripten_glGetUniformuiv__wrapper
sS:__ZNK16btCollisionWorld20ConvexResultCallback14needsCollisionEP17btBroadphaseProxy
l2a:_i64Add
dJa:__ZN7dmSound13OnWindowFocusEb
VBa:__ZN5dmGui42CalculateParentNodeTransformAndAlphaCachedEPNS_5SceneEPNS_12InternalNodeERN10Vectormath3Aos7Matrix4ERfRNS_19SceneTraversalCacheE
z5:__ZN8dmRender31RenderScript_EnableRenderTargetEP9lua_State
ata:__ZL26stbi__resample_row_genericPhS_S_ii
fya:_SimpleVFilter16i
SG:__ZN10dmGraphics23RegisterGraphicsAdapterEPNS_15GraphicsAdapterEPFbvEPFNS_28GraphicsAdapterFunctionTableEvEa
hp:__ZN12dmGameObject21Script_GetScaleVectorEP9lua_State
e1:__ZN25b2PolygonAndCircleContactD0Ev
QLa:_mbedtls_rsa_free
gWa:_sha224_ctx_free
vI:__ZN10dmGraphics15GetTextureWidthEPNS_7TextureE
AYa:_mbedtls_chacha20_update
hoa:__ZN5dmHID19EnableAccelerometerEv
zQ:__ZN6btDbvt8ICollide7DescentEPK10btDbvtNode
JX:__ZN26btBoxBoxCollisionAlgorithm16processCollisionEP17btCollisionObjectS1_RK16btDispatcherInfoP16btManifoldResult
oda:_socket_create
$Ua:_ecp_mod_p192k1
ll:__ZN15dmEngineService12InitProfilerEPNS_13EngineServiceEPN10dmResource16SResourceFactoryEPN12dmGameObject8RegisterE
Wza:_VP8LoadFinalBytes
xo:__ZN12dmGameObject11SetPropertyEPNS_8InstanceEyyRKNS_11PropertyVarE
C8:__ZN8dmScriptL15Script_tostringEP9lua_State
fqa:__ZN5dmRig15InstanceDestroyERKNS_21InstanceDestroyParamsE
Zj:FUNCTION_TABLE_iiiiiiiiii
mVa:_mbedtls_gcm_starts
oN:__ZN11dmHashTableImN9dmPhysics12OverlapEntryEE11SetCapacityEjj
k1a:_setlocale_one_unlocked
jN:__ZN12btIDebugDraw7drawBoxERK9btVector3S2_S2_
O7:__ZN8dmScript23SetInstanceContextValueEP9lua_State
nTa:_mbedtls_des3_crypt_cbc
eU:__ZNK10btBoxShape24localGetSupportingVertexERK9btVector3
VX:__ZN28btCompoundCollisionAlgorithm21calculateTimeOfImpactEP17btCollisionObjectS1_RK16btDispatcherInfoP16btManifoldResult
sY:__ZN23btConvexConvexAlgorithm21calculateTimeOfImpactEP17btCollisionObjectS1_RK16btDispatcherInfoP16btManifoldResult
aK:__ZN10dmGraphicsL24OpenGLDeleteRenderTargetEPNS_12RenderTargetE
B4:__ZN8dmRender17StencilTestParamsC2Ev
E8:__ZN8dmScriptL11Script_HashEP9lua_State
jm:__GLOBAL__sub_I_gameobject_cpp
bo:__ZN12dmGameObject16GetWorldPositionEPNS_8InstanceE
n8a:_emscripten_glBlendFuncSeparate__wrapper
Tj:FUNCTION_TABLE_iiii
Sj:FUNCTION_TABLE_iiif
De:_emscripten_glHint
lP:__ZN11btRigidBody19removeConstraintRefEP17btTypedConstraint
Gda:__GLOBAL__sub_I_http_ddf_cpp
wb:___syscall3
c6:__ZN8dmRenderL35RenderScriptConstantBuffer_tostringEP9lua_State
Eb:___syscall6
Cb:___syscall5
Ab:___syscall4
bR:__ZZN28btHashedOverlappingPairCache37removeOverlappingPairsContainingProxyEP17btBroadphaseProxyP12btDispatcherEN18RemovePairCallbackD0Ev
d6a:_emscripten_glVertexAttrib4fv__wrapper
Is:__ZN10dmResourceL10HttpHeaderEPN12dmHttpClient8ResponseEPviPKcS5_
RIa:__ZN7dmSound12SetGroupGainEyf
xu:__ZN12dmGameSystem18CompCameraNewWorldERKN12dmGameObject23ComponentNewWorldParamsE
vj:_tzset
fZ:__ZNK13b2CircleShape7RayCastEP15b2RayCastOutputRK14b2RayCastInputRK11b2Transformi
af:_emscripten_glShaderBinary
dwa:_inflate_table
gGa:__ZN5dmGuiL15LuaHideKeyboardEP9lua_State
Jta:__ZN9dmMessage4PostEPKNS_3URLES2_ymmPKvjPFvPNS_7MessageEE
Np:__ZN12dmGameObjectL17ScriptResolvePathEP9lua_State
xC:__ZN12dmGameSystem24ResRenderPrototypeCreateERKN10dmResource20ResourceCreateParamsE
P8a:b51
wDa:__ZN5dmGui27GetNodeFlipbookPlaybackRateEPNS_5SceneEj
Iva:_WebPDecodeRGBInto
Gh:_glGetProgramInfoLog
ep:__ZN12dmGameObjectL15ResolveInstanceEP9lua_Statei
Wva:_deflate_fast
kWa:_sha256_wrap
TL:__ZN9dmPhysics15DeleteContext3DEPNS_9Context3DE
hB:__ZN12dmGameSystem18ResEmitterRecreateERKN10dmResource22ResourceRecreateParamsE
XMa:_ssl_clear_peer_cert
Pl:__ZN11micropather12PathNodePoolC2Ejj
KH:__ZN10dmGraphics18NewFragmentProgramEPNS_7ContextEPNS_10ShaderDesc6ShaderE
ena:_push_onecapture
Sb:_abort
_x:__ZN12dmGameSystemL22CompModelEventCallbackEN5dmRig12RigEventTypeEPvS2_S2_
Wh:_glTexImage2D
kW:__ZN12btConvexCastD2Ev
jfa:_lua_type
_W:__ZN25btTriangleRaycastCallbackC2ERK9btVector3S2_j
Yr:__ZN11dmHashTableIjjE3PutEjRKj
vQa:_mbedtls_aes_setkey_enc
tqa:__ZN8dmBuffer15GetStreamOffsetEjjPj
XVa:_sha1_update_wrap
uha:_luaO_log2
Z4:__ZN8dmRender20FindRenderListRangesEPjmmPNS_15RenderListEntryERNS_19FindRangeComparatorEPvPFvS5_jmmE
Uza:_ConvertBGR24ToY
ita:__ZN6dmJsonL9CopyTokenEPK9jsmntok_tPNS_4NodeEi
uZ:__ZNK11b2GridShape9TestPointERK11b2TransformRK6b2Vec2
mZ:__ZNK11b2EdgeShape7RayCastEP15b2RayCastOutputRK14b2RayCastInputRK11b2Transformi
Xw:__ZN12dmGameSystem20CompLabelDeleteWorldERKN12dmGameObject26ComponentDeleteWorldParamsE
cIa:__ZN12dmLiveUpdate23AddAsyncResourceRequestERNS_20AsyncResourceRequestE
O_a:_pntz
ECa:__ZN5dmGui15GetNodePropertyEPNS_5SceneEjNS_8PropertyE
ao:__ZN12dmGameObject8GetScaleEPNS_8InstanceE
AQa:_mbedtls_aes_crypt_ecb
Ff:_emscripten_glUniform2iv
nCa:__ZN5dmGui7NewNodeEPNS_5SceneERKN10Vectormath3Aos6Point3ERKNS3_7Vector3ENS_8NodeTypeE
l3a:dynCall_viff
AM:__ZN9dmPhysics14ReplaceShape3DEPNS_9Context3DEPvS2_
KGa:__ZN5dmGuiL16CloneNodeToTableEP9lua_StatePNS_5SceneEPNS_12InternalNodeEPj
pe:_emscripten_glGetTexParameterfv
vb:___syscall221
X_a:_strncasecmp
tBa:__ZN5dmGui22CancelNodeFlipbookAnimEPNS_5SceneEj
RQa:_mbedtls_mpi_shrink
hia:_luaH_new
C6:__ZN8dmRender24InitRenderScriptInstanceEPNS_20RenderScriptInstanceE
aNa:_mbedtls_ssl_derive_keys
i$a:_strcat
cma:_math_log10
dRa:_mbedtls_mpi_add_int
IY:__ZN12gjkepa2_impl3GJK8EvaluateERKNS_13MinkowskiDiffERK9btVector3
xv:__ZN12dmGameSystem30CompCollisionObjectAddToUpdateERKN12dmGameObject26ComponentAddToUpdateParamsE
Dp:__ZN12dmGameObject16InitializeScriptEPNS_8RegisterEPN8dmScript7ContextE
MS:__ZN30btCollisionAlgorithmCreateFuncD2Ev
EGa:__ZN5dmGuiL17LuaParticlefxStopEP9lua_State
dqa:__ZN5dmRig14InstanceCreateERKNS_20InstanceCreateParamsE
mza:_WebPRescalerImportRow
oha:_luaC_linkupval
ica:_global_select
Mt:__ZN10dmResource15UpdatePreloaderEPNS_17ResourcePreloaderEPFbPKNS_31PreloaderCompleteCallbackParamsEEPS2_j
q1:__ZNK12b2MouseJoint10GetAnchorAEv
HG:__GLOBAL__sub_I_model_ddf_cpp
ES:__ZN31btDefaultCollisionConfigurationD2Ev
nha:_luaC_link
vna:__ZN11dmExtension9AppParamsC2Ev
S$a:_ftell
dpa:__ZN10dmParticle18GenerateVertexDataEPNS_7ContextEfjjRKN10Vectormath3Aos7Vector4EPvjPjNS_20ParticleVertexFormatE
W5:__ZN8dmRender22RenderScript_GetHeightEP9lua_State
pp:__ZN12dmGameObject20Script_GetWorldScaleEP9lua_State
b$a:_strstr
KM:__ZN9dmPhysics21OverlapCachePruneDataC2Ev
Sda:_buffer_open
X0:__ZN22b2GridAndCircleContact8EvaluateEP10b2ManifoldRK11b2TransformS4_
BAa:_HorizontalUnfilter
v:tempValue
jva:__ZN5dmSys18GetApplicationInfoEPKcPNS_15ApplicationInfoE
_I:__ZN10dmGraphicsL16OpenGLBeginFrameEPNS_7ContextE
sP:__ZN20btAxisSweep3InternalItE11createProxyERK9btVector3S3_iPvssP12btDispatcherS4_
Si:_llvm_floor_f32
uWa:_sha512_wrap
pg:_emscripten_glVertexAttribI3uiv
vha:_luaO_rawequalObj
hF:__ZN12dmGameSystemL16Physics_SetFlipHEP9lua_State
OA:__ZN12dmGameSystem26ResCollectionFactoryCreateERKN10dmResource20ResourceCreateParamsE
Xr:__ZN11dmHashTableIjjE11SetCapacityEjj
$E:__ZN12dmGameSystemL19Physics_CreateJointEP9lua_State
vo:__ZN12dmGameObject11GetPropertyEPNS_8InstanceEyyRNS_12PropertyDescE
RSa:_gcm_aes_setkey_wrap
T$a:_fscanf
Aga:_luaD_throw
KKa:_mbedtls_md5_ret
ka:invoke_iiiii
aEa:__ZN5dmGui15SetNodeSizeModeEPNS_5SceneEjNS_8SizeModeE
d$:__ZN11b2RopeJointD0Ev
DQ:__ZN6btDbvt8ICollide7ProcessEPK10btDbvtNodeS3_
La:invoke_viii
r7a:_emscripten_glNormalPointer__wrapper
z7a:_emscripten_glGetVertexAttribIiv__wrapper
Ga:invoke_viid
Ha:invoke_viif
Tba:_luaopen_bit
M7:__ZN8dmScript18InitializeInstanceEPNS_11ScriptWorldE
$ua:__ZN5dmSys8MoveFileEPKcS1_
n6:__ZN8dmRenderL23RenderScriptResolvePathEP9lua_State
KDa:__ZN5dmGui14GetTextMetricsEPNS_5SceneEPKcyfbffPNS_11TextMetricsE
fp:__ZN12dmGameObject18Script_GetRotationEP9lua_State
$_:__ZNK11b2RopeJoint10GetAnchorBEv
e2a:___cxa_guard_abort
cn:__ZN12dmGameObject21RegisterResourceTypesEPN10dmResource16SResourceFactoryEPNS_8RegisterEPN8dmScript7ContextEPNS_13ModuleContextE
Ml:__ZN3Map5ClearEv
X4a:_emscripten_glBlendColor__wrapper
gAa:_VP8InitRandom
Aj:emscriptenWebGLGetUniform
NT:__ZN11btUnionFindC2Ev
NF:__ZN12dmGameSystem24ScriptSoundOnWindowFocusEb
TOa:_mbedtls_ssl_handshake_wrapup
GLa:_mbedtls_pk_parse_public_key
Y7a:_emscripten_glShaderSource__wrapper
z6a:_emscripten_glVertexAttribI1iv__wrapper
K:Math_log
kea:_inet_optfamily
O8:__ZN8dmScriptL22MessageDestroyCallbackEPN9dmMessage7MessageE
_2:__ZN15b2FrictionJoint4DumpEv
f9:__ZN8dmScript5IsURLEP9lua_Statei
S0:__ZN22b2EdgeAndCircleContact7DestroyEP9b2ContactP16b2BlockAllocator
nL:__ZN9dmPhysics19ClearGridShapeHullsEPv
Rza:_WebPInitConvertARGBToYUV
Od:_emscripten_glGetActiveUniformBlockName
Hn:__ZN7dmVMath11EulerToQuatEN10Vectormath3Aos7Vector3E
eXa:_mbedtls_ssl_own_key
AO:__ZN23btDiscreteDynamicsWorld12applyGravityEv
nBa:__ZN11dmHashTableIyN5dmGui11TextureInfoEE3PutEyRKS1_
aXa:_ssl_parse_new_session_ticket
Dj:f0
jRa:_mpi_sub_hlp
XR:__ZN19btSingleRayCallback7processEPK17btBroadphaseProxy
aB:__ZN12dmGameSystem21ResConvexShapeDestroyERKN10dmResource21ResourceDestroyParamsE
gta:__ZN8dmSocket14GetIfAddressesEPNS_6IfAddrEjPj
wT:__ZN25btSimulationIslandManagerC2Ev
Vxa:_TransformDCUV
go:__ZN12dmGameObject10PostUpdateEPNS_16CollectionHandleE
lWa:_sha384_starts_wrap
kca:_getfd
E4:__ZN8dmRender12RenderObject4InitEv
dE:__ZN12dmGameSystemL15Buffer_tostringEP9lua_State
eCa:__ZN5dmGui10DeleteNodeEPNS_5SceneEjb
qZ:__ZN11b2GridShapeD2Ev
MSa:_camellia_setkey_enc_wrap
Ia:invoke_viifi
GUa:_ecp_select_comb
Via:_luaL_optnumber
R2a:dynCall_ii
Nf:_emscripten_glUniform4fv
kG:__ZN12dmGameSystemL15TileMap_SetTileEP9lua_State
Kt:__ZN10dmResourceL21PreloadPathDescriptorEPNS_17ResourcePreloaderEsRKNS_14PathDescriptorE
pna:_ll_module
du:__GLOBAL__sub_I_liveupdate_ddf_cpp
WXa:_x509_date_is_valid
esa:__ZN11dmHttpCache20GetConsistencyPolicyEPNS_5CacheE
F4a:_emscripten_glFlush__wrapper
DF:__ZN12dmGameSystemL18Sound_SetGroupGainEP9lua_State
qEa:__ZN5dmGui11GetLuaStateEPNS_7ContextE
_ga:_luaF_getlocalname
KFa:__ZN5dmGuiL25LuaGetTextMetricsFromNodeEP9lua_State
ML:__ZN9dmPhysics16GetJointParams2DEPNS_7World2DEPvNS_9JointTypeERNS_18ConnectJointParamsE
xfa:_lua_touserdata
zga:_luaG_ordererror
pV:__ZNK17btConvexHullShape37localGetSupportingVertexWithoutMarginERK9btVector3
Z$a:_rename
YMa:_tls_prf_sha256
j8:__ZN8dmScriptL20DefaultLuaValueToDDFEP9lua_StatePKN5dmDDF15FieldDescriptorEPcPS6_S7_PKcS6_
ih:_glDeleteFramebuffers
Uva:_deflateReset
aJa:__ZN7dmSound6UpdateEv
pza:_UpsampleRgbLinePair
et:__ZN10dmResource7GetTypeEPNS_16SResourceFactoryEPvPm
Qha:_funcargs
hn:__ZN12dmGameObject19ConstructInstanceIdEj
HZa:_write
QXa:_x509_get_hash_alg
PQa:_mbedtls_mpi_zeroize
a9a:_emscripten_glCopyTexSubImage2D__wrapper
$xa:_VFilter16i
SX:__ZN28btCompoundCollisionAlgorithmD2Ev
lT:__ZN13btGhostObject28addOverlappingObjectInternalEP17btBroadphaseProxyS1_
hf:_emscripten_glStencilOpSeparate
TC:__ZN12dmGameSystem20ResSoundDataRecreateERKN10dmResource22ResourceRecreateParamsE
rLa:_ecdsa_verify_wrap
mFa:__ZN5dmGuiL15LuaSetLineBreakEP9lua_State
ot:__ZN10dmResource34UnregisterResourceReloadedCallbackEPNS_16SResourceFactoryEPFvRKNS_22ResourceReloadedParamsEEPv
nqa:__ZN8dmBuffer13GetStructSizeEj
oCa:__ZN5dmGui13MoveNodeAboveEPNS_5SceneEjj
u4:__ZN8dmRender14AddMaterialTagEPNS_8MaterialEy
Y8:__ZN8dmScript19InitializeLuasocketEP9lua_State
Fda:__GLOBAL__sub_I_ddf_script_cpp
sn:__ZN12dmGameObject6DeleteEPNS_10CollectionEPNS_8InstanceEb
q8a:_emscripten_glGetUniformIndices__wrapper
n7:__ZN8dmScript13GetConfigFileEPNS_7ContextE
Aua:__ZN8dmSocket6AcceptEiPNS_7AddressEPi
$z:__ZN12dmGameSystem21CompSpriteSetPropertyERKN12dmGameObject26ComponentSetPropertyParamsE
NOa:_ssl_dtls_replay_reset
eya:_SimpleHFilter16
Xd:_emscripten_glGetError
qJ:__ZN10dmGraphicsL29OpenGLEnableVertexDeclarationEPNS_7ContextEPNS_17VertexDeclarationEm
rka:_luaB_cocreate
yj:emscriptenWebGLGet
Bca:_meth_getstats
pu:__ZN12dmGameSystem20InitializeScriptLibsERKNS_16ScriptLibContextE
tr:__ZN5dmDDF11InputBuffer4SeekEj
d1:__ZN25b2PolygonAndCircleContact8EvaluateEP10b2ManifoldRK11b2TransformS4_
TGa:__ZN5dmGuiL26GuiScriptInstance_tostringEP9lua_State
ZN:__ZN23btDiscreteDynamicsWorld9serializeEP12btSerializer
WTa:_mbedtls_ecdsa_read_signature
pma:_math_tan
lya:_RD4
kda:_socket_open
JQ:__ZN28btHashedOverlappingPairCacheD2Ev
Lca:_timeout_gettime
h4a:_emscripten_glIsEnabled__wrapper
ef:_emscripten_glStencilMask
wA:__ZN12dmGameSystem23CompTileGridGetPropertyERKN12dmGameObject26ComponentGetPropertyParamsERNS0_12PropertyDescE
H8:__ZN8dmScriptL15GetStringHelperEP9lua_StateiRb
EJ:__ZN10dmGraphicsL30OpenGLGetShaderProgramLanguageEPNS_7ContextE
D_:__ZN16b2PrismaticJoint13SetMotorSpeedEf
z_:__ZNK16b2PrismaticJoint13GetUpperLimitEv
nDa:__ZN5dmGui13GetNodeFontIdEPNS_5SceneEj
nr:__ZN5dmDDFL18DoLoadDefaultFieldEPNS_11LoadContextEPKNS_15FieldDescriptorEPNS_7MessageE
y_:__ZNK16b2PrismaticJoint13GetLowerLimitEv
dy:__ZN12dmGameSystem16CompModelDestroyERKN12dmGameObject22ComponentDestroyParamsE
WLa:_mbedtls_rsa_rsaes_oaep_encrypt
M3:__ZN8dmRender21InitializeTextContextEPNS_13RenderContextEj
we:_emscripten_glGetUniformiv
YJa:__ZN10dmDeviceJS13DeviceJSCloseEPv
oFa:__ZN5dmGuiL15LuaGetBlendModeEP9lua_State
e8:__ZN8dmScript14InvokeCallbackEPNS_15LuaCallbackInfoEPFvP9lua_StatePvES4_
pd:_emscripten_glDrawArraysInstanced
i_:__Z5b2LogPKcz
RX:__ZN16btBoxBoxDetectorC2EP10btBoxShapeS1_
aTa:_mbedtls_des3_free
uX:__ZL10insertleafP6btDbvtP10btDbvtNodeS2_
Oka:_luaB_select
mz:__ZN12dmGameSystem15SpineModelWorldD2Ev
lKa:__ZN12dmSoundCodec15RegisterDecoderEPNS_11DecoderInfoE
XOa:_mbedtls_ssl_session_init
Hf:_emscripten_glUniform3f
hU:__ZNK10btBoxShape36getNumPreferredPenetrationDirectionsEv
Yua:__ZN5dmSys6UnlinkEPKc
$D:__ZN12dmGameSystemL10Stream_lenEP9lua_State
MUa:_mbedtls_mpi_add_mod
fS:__ZN12btConvexCast10CastResultD2Ev
G6a:_emscripten_glVertexAttribI4uiv__wrapper
Aoa:__ZN10dmParticle13CreateContextEjj
o5a:_emscripten_glEnable__wrapper
d_a:_printf_core
ENa:_ssl_get_maximum_datagram_size
pH:__ZN10dmGraphics15SetSwapIntervalEPNS_7ContextEj
rSa:_des3_set3key_enc_wrap
s8:__ZN8dmScriptL26InternalFinalizeExtensionsEPNS_7ContextE
Gna:__ZN5dmHID22SetGamepadFuncUserdataEPNS_7ContextEPv
Pga:_luaU_dump
N$:__ZN9b2Fixture11SynchronizeEP12b2BroadPhaseRK11b2TransformS4_
Th:_glStencilFunc
BP:__ZNK20btAxisSweep3InternalItE17getBroadphaseAabbER9btVector3S2_
hIa:__ZN12dmLiveUpdate18CreateResourceHashEN15dmLiveUpdateDDF13HashAlgorithmEPKcmPh
Ita:__ZN9dmMessage8ResetURLERKNS_3URLE
jh:_glDeleteProgram
nt:__ZN10dmResource32RegisterResourceReloadedCallbackEPNS_16SResourceFactoryEPFvRKNS_22ResourceReloadedParamsEEPv
Ib:__addDays
$L:__ZN9dmPhysics30ProcessRayCastResultCallback3DD0Ev
qGa:__ZN5dmGuiL17LuaSetOuterBoundsEP9lua_State
GU:__ZNK14btCapsuleShape37localGetSupportingVertexWithoutMarginERK9btVector3
YV:__ZNK13btSphereShape7getNameEv
Zp:__ZN12dmGameObject18RegisterSubModulesEPN10dmResource16SResourceFactoryEPN8dmScript7ContextEPN8dmLuaDDF9LuaModuleE
fh:_glCreateShader
ho:__ZN12dmGameObject10PostUpdateEPNS_8RegisterE
gE:__ZN8dmScript11CheckBufferEP9lua_Statei
nOa:_ssl_bitmask_check
PRa:_mbedtls_cipher_setup
FV:__ZN13btConvexShapeD2Ev
yKa:_mbedtls_entropy_free
L8:__ZN8dmScript19HttpResponseDecoderEP9lua_StatePKN5dmDDF10DescriptorEPKc
$Ga:__ZN5dmGuiL20GuiScriptResolvePathEP9lua_State
G_:__ZNK15b2RevoluteJoint10GetAnchorBEv
X2a:dynCall_iiiiii
qZa:___shgetc
ara:__ZN5dmDNS10InitializeEv
SNa:_ssl_flight_append
GRa:_mbedtls_mpi_fill_random
Sja:_condjump
CK:__ZN10dmGraphicsL16TryCompileShaderEjPKvi
SZa:_fmodl
xNa:_mbedtls_ssl_flush_output
yIa:__ZN7dmSoundL25MixResampleIdentityStereoIhLi128ELi255EEEvPKNS_10MixContextEPNS_13SoundInstanceEjjPfj
YHa:__ZN12dmLiveUpdate18SetNewArchiveIndexEPN17dmResourceArchive21ArchiveIndexContainerEPNS0_12ArchiveIndexEb
aOa:_ssl_load_six_bytes
uda:_socket_accept
Mp:__ZN12dmGameObjectL12ScriptGetURLEP9lua_State
PN:__ZN11btRigidBodyD2Ev
Zxa:_VFilter8
H4:__ZN8dmRender16NewRenderContextEPN10dmGraphics7ContextERKNS_19RenderContextParamsE
B2:__ZN15b2CircleContact6CreateEP9b2FixtureiS1_iP16b2BlockAllocator
R7a:_emscripten_glBufferData__wrapper
p6a:_emscripten_glBlendEquationSeparate__wrapper
_Y:__ZN15CProfileManager5ResetEv
mMa:_mbedtls_rsa_rsassa_pkcs1_v15_verify
eia:_setnodevector
th:_glEnable
ui:_glfwIconifyWindow
ZI:__ZN10dmGraphicsL30OpenGLGetDefaultTextureFiltersEPNS_7ContextERNS_13TextureFilterES3_
Kh:_glGetString
xba:__ZN8dmScriptL11Vector3_mulEP9lua_State
Lr:__ZN5dmDDF7Message15ReadScalarFieldEPNS_11LoadContextENS_8WireTypeEPKNS_15FieldDescriptorEPNS_11InputBufferE
l8a:_emscripten_glColorMask__wrapper
TCa:__ZN5dmGui14SetNodeTextureEPNS_5SceneEjy
UR:__ZN9btHashMapI9btHashPtrP16btCollisionShapeE10growTablesERKS0_
Uwa:_WebPInitCustomIo
zj:emscriptenWebGLGetTexPixelData
Ng:_gettimeofday
Rka:_luaB_tonumber
NSa:_camellia_setkey_dec_wrap
uY:__ZN24btPerturbedContactResultD0Ev
_Za:_atoi
EC:__ZN12dmGameSystem18ResRigScenePreloadERKN10dmResource21ResourcePreloadParamsE
EDa:__ZN5dmGui19CancelNodeSpineAnimEPNS_5SceneEj
k8a:_emscripten_glScissor__wrapper
XT:__ZNK10btBoxShape7getAabbERK11btTransformR9btVector3S4_
qk:FUNCTION_TABLE_viifi
QQ:__ZN28btHashedOverlappingPairCache23getOverlappingPairArrayEv
CB:__ZN12dmGameSystem16AcquireResourcesEPN10dmResource16SResourceFactoryEPN5dmGui7ContextEPN8dmGuiDDF9SceneDescEPNS_16GuiSceneResourceEPKc
W_a:_strcasestr
gQ:__ZN16btDbvtBroadphase12destroyProxyEP17btBroadphaseProxyP12btDispatcher
Jg:_getenv
wsa:__ZN12dmHttpClientL7ReceiveEPNS_8ResponseEPviPi
Rla:_math_acos
kZa:_dummy
tE:__ZN12dmGameSystem32CollectionProxy_MissingResourcesEP9lua_State
a8:__ZN8dmScript14CreateCallbackEP9lua_Statei
F6:__ZN8dmRender26UpdateRenderScriptInstanceEPNS_20RenderScriptInstanceEf
Nqa:__ZN12dmConfigFile6DeleteEPNS_6ConfigE
zP:__ZN20btAxisSweep3InternalItE23getOverlappingPairCacheEv
li:_glfwGetJoystickPos
J7:__ZN8dmScript14NewScriptWorldEPNS_7ContextE
oS:__ZN16btCollisionWorld16updateSingleAabbEP17btCollisionObject
Yw:__ZN12dmGameSystem6ReHashEPNS_14LabelComponentE
H6a:_emscripten_glVertexAttribI4bv__wrapper
uYa:_mbedtls_ccm_star_auth_decrypt
IM:__ZN9dmPhysics12OverlapCacheC2Ej
c5a:_emscripten_glLinkProgram__wrapper
b6a:_emscripten_glVertexAttrib2fv__wrapper
sr:__ZN5dmDDF11InputBuffer4TellEv
XWa:_ssl_parse_server_key_exchange
j9:__ZN8dmScript10ResolveURLEP9lua_StatePKcPN9dmMessage3URLES6_
pO:__ZN23btDiscreteDynamicsWorld10addVehicleEP17btActionInterface
BZ:__ZNK11b2GridShape20GetEdgeShapesForCellEjP11b2EdgeShapejj
u8a:_emscripten_glVertexAttribI3ui__wrapper
bFa:__ZN5dmGui17LuaSetSpineCursorEP9lua_State
Z_:__ZN15b2RevoluteJoint9SetLimitsEff
U4:__ZN8dmRender13SetViewMatrixEPNS_13RenderContextERKN10Vectormath3Aos7Matrix4E
Iga:_luaD_call
mra:_dmHashEnableReverseHash
Q4a:_emscripten_glLineWidth__wrapper
Xpa:__ZN5dmRig14GetVertexCountEPNS_11RigInstanceE
y6a:_emscripten_glVertexAttribI1ui__wrapper
V$:__ZN7b2World11DestroyBodyEP6b2Body
te:_emscripten_glGetUniformIndices
Lo:__ZN12dmGameObject8PushBoolEPNS_24PropertyContainerBuilderEyb
M8:__ZN8dmScript10OnHttpLoadEPviS0_iPKc
OC:__ZN12dmGameSystem14ResSoundCreateERKN10dmResource20ResourceCreateParamsE
nH:__ZN10dmGraphics10BeginFrameEPNS_7ContextE
_da:_global_newtry
bMa:_size_greater_than
maa:__ZN8dmScript6ToQuatEP9lua_Statei
sva:__ZN8dmThread11GetTlsValueEj
fx:__ZN12dmGameSystem18CompLabelOnMessageERKN12dmGameObject24ComponentOnMessageParamsE
AA:__ZN12dmGameSystem22ResAnimationSetPreloadERKN10dmResource21ResourcePreloadParamsE
uz:__ZN12dmGameSystemL18RenderListDispatchERKN8dmRender24RenderListDispatchParamsE_2647
o$a:_freopen
gTa:_mbedtls_des3_set2key_dec
yl:__ZL16astar_resetcacheP9lua_State
up:__ZN12dmGameObject14Script_AnimateEP9lua_State
i9:__ZN8dmScript10ResolveURLEP9lua_StateiPN9dmMessage3URLES4_
KZ:__ZNK14b2PolygonShape11ComputeAABBEP6b2AABBRK11b2Transformi
gJa:__ZN12dmSoundCodecL15StbVorbisDecodeEPvPcjPj
N2:__ZNK15b2DistanceJoint10GetAnchorBEv
QC:__ZN12dmGameSystem16ResSoundRecreateERKN10dmResource22ResourceRecreateParamsE
zq:__ZN12dmGameObject9AnimWorldD2Ev
jn:__ZN12dmGameObject20AcquireInstanceIndexEPNS_16CollectionHandleE
rv:__ZN12dmGameSystem20ContactPointCallbackERKN9dmPhysics12ContactPointEPv
W7a:_emscripten_glUniformMatrix4fv__wrapper
Sga:_luaF_newLclosure
Jva:_DecodeInto
bK:__ZN10dmGraphicsL21OpenGLSetRenderTargetEPNS_7ContextEPNS_12RenderTargetEj
Uha:_luaE_newthread
DPa:_mbedtls_ssl_hash_from_md_alg
He:_emscripten_glIsFramebuffer
xc:_emscripten_glBlendEquationSeparate
pG:__ZN12dmGameSystemL11SetListenerEP9lua_State
Ig:_getaddrinfo
uEa:__ZN5dmGuiL12LuaCheckNodeEP9lua_StateiPj
gq:__ZN12dmGameObject12ResLuaCreateERKN10dmResource20ResourceCreateParamsE
Fy:__ZN12dmGameSystem11GetPropertyERN12dmGameObject12PropertyDescEyRKN10Vectormath3Aos7Vector3ERKNS_11PropVector3E
zA:__ZN12dmGameSystemL31CompTileGridSetConstantCallbackEPvyPjRKN12dmGameObject11PropertyVarE
Kwa:_WebPFreeDecBuffer
mSa:_chacha20_setkey_wrap
Vca:_udp_create
GJ:__ZN10dmGraphicsL20OpenGLDisableProgramEPNS_7ContextE
aBa:__ZN5dmGui14SetDefaultFontEPNS_7ContextEPv
VI:__ZN10dmGraphicsL20OpenGLGetWindowWidthEPNS_7ContextE
fJa:__ZN12dmSoundCodec20StbVorbisCloseStreamEPv
n6a:_emscripten_glVertexAttribDivisor__wrapper
bv:__ZN12dmGameSystem26CompCollectionProxyOnInputERKN12dmGameObject22ComponentOnInputParamsE
$2a:dynCall_iiiiiiiiii
vS:__ZZN16btCollisionWorld17objectQuerySingleEPK13btConvexShapeRK11btTransformS5_P17btCollisionObjectPK16btCollisionShapeS5_RNS_20ConvexResultCallbackEfEN32BridgeTriangleConvexcastCallback9reportHitE_0RK9btVector3SG_fii
Eya:_DC8uvNoTopLeft
xpa:__ZN10dmParticle19GetVertexBufferSizeEjNS_20ParticleVertexFormatE
hM:__ZN9dmPhysics20NewCollisionObject3DEPNS_7World3DERKNS_19CollisionObjectDataEPPvPN10Vectormath3Aos7Vector3EPNS8_4QuatEj
e4a:_emscripten_glIsFramebuffer__wrapper
LI:__ZN10dmGraphicsL14OpenGLFinalizeEv
Mc:_emscripten_glClearDepthf
Pta:__ZN7dmMutex3NewEv
VO:__ZNK11btRigidBody9serializeEPvP12btSerializer
_ma:_str_rep
Hja:_luaK_setoneret
Zqa:__ZN4dLib12SetDebugModeEb
MQ:__ZN28btHashedOverlappingPairCache21removeOverlappingPairEP17btBroadphaseProxyS1_P12btDispatcher
UYa:_poly1305_process
ou:__ZN12dmGameSystem16ScriptLibContextC2Ev
IZa:_read
Rd:_emscripten_glGetActiveUniformsiv
uv:__ZN12dmGameSystemL9BroadCastIN12dmPhysicsDDF15TriggerResponseEEEvPT_PN12dmGameObject8InstanceEyt
sc:_emscripten_glBindRenderbuffer
QF:__ZN12dmGameSystem18SpineComp_PlayAnimEP9lua_State
xDa:__ZN5dmGui27SetNodeFlipbookPlaybackRateEPNS_5SceneEjf
zW:__ZZN33btMinkowskiPenetrationDepthSolver12calcPenDepthER22btVoronoiSimplexSolverPK13btConvexShapeS4_RK11btTransformS7_R9btVector3S9_S9_P12btIDebugDrawP12btStackAllocEN20btIntermediateResult15addContactPointERKS8_SG_f
VDa:__ZN5dmGui18GetNodeOuterBoundsEPNS_5SceneEj
Zz:__ZN12dmGameSystem21CompSpriteGetPropertyERKN12dmGameObject26ComponentGetPropertyParamsERNS0_12PropertyDescE
lR:__ZN21btCollisionDispatcher13clearManifoldEP20btPersistentManifold
MZa:___floatscan
$w:__ZN12dmGameSystem16CompLabelDestroyERKN12dmGameObject22ComponentDestroyParamsE
uI:__ZN10dmGraphics22GetTextureResourceSizeEPNS_7TextureE
yPa:_mbedtls_ssl_config_init
Tsa:__ZL20stbi__zbuild_huffmanP14stbi__zhuffmanPKhi
lha:_luaC_barrierf
zi:_glfwResetKeyboard
goa:__ZN5dmHID13ResetKeyboardEPNS_7ContextE
bJa:__ZN7dmSound17IsPhoneCallActiveEv
zma:_os_setlocale
Hsa:__ZL15stbi__load_mainP13stbi__contextPiS1_S1_iP17stbi__result_infoi
ARa:_mbedtls_mpi_mod_mpi
GPa:_mbedtls_ssl_get_key_exchange_md_tls1_2
Ka:invoke_viifii
G4a:_emscripten_glEndTransformFeedback__wrapper
Zna:__ZN5dmHID4InitEPNS_7ContextE
Oo:__ZN12dmGameObject7PushURLEPNS_24PropertyContainerBuilderEyPKc
Iz:__GLOBAL__sub_I_comp_sprite_cpp
fm:__ZN8dmRecord3NewEPKNS_9NewParamsEPPNS_8RecorderE
rja:_luaK_nil
vRa:_mbedtls_mpi_read_binary
QJ:__ZN10dmGraphicsL18OpenGLDisableStateEPNS_7ContextENS_5StateE
rxa:_VP8Decode
Xta:__ZN15dmPoolAllocator6DeleteEPNS_4PoolE
U2:__ZN15b2DistanceJoint24SolvePositionConstraintsERK12b2SolverData
Lva:_WebPIoInitFromOptions
o:setjmpId
Iu:__ZN12dmGameSystem27CompCollectionFactoryCreateERKN12dmGameObject21ComponentCreateParamsE
no:__ZN12dmGameObject11GetRegisterEPNS_16CollectionHandleE
wGa:__ZN5dmGuiL20LuaGetFlipbookCursorEP9lua_State
AR:__ZN17btCollisionObjectD0Ev
zwa:__ZN16dmConnectionPool5CloseEPNS_14ConnectionPoolEj
eC:__ZN12dmGameSystem15ResMeshRecreateERKN10dmResource22ResourceRecreateParamsE
_A:__ZN12dmGameSystem16AcquireResourcesEPN10dmResource16SResourceFactoryEPNS_14PhysicsContextEPKvjPNS_19ConvexShapeResourceEPKc
OWa:_mbedtls_ssl_list_ciphersuites
q3a:dynCall_viid
VR:__ZN24btBroadphaseAabbCallbackD2Ev
r3a:dynCall_viif
v3a:dynCall_viii
gN:__ZN12btIDebugDraw13drawTransformERK11btTransformf
FM:__ZN9dmPhysics14RayCastRequestC2Ev
jS:__ZN17DebugDrawcallback15processTriangleEP9btVector3ii
kXa:_ssl_parse_server_ecdh_params
Ym:__ZN12dmGameObject18SortComponentTypesEPNS_8RegisterE
v1:__ZN12b2MouseJointD0Ev
fg:_emscripten_glVertexAttribI1iv
zc:_emscripten_glBlendFuncSeparate
dP:__ZN11btRigidBody10setGravityERK9btVector3
fsa:__ZN11dmHttpCache7IterateEPNS_5CacheEPvPFvS2_PKNS_9EntryInfoEE
Dua:__ZN8dmSocket6ListenEii
AH:__ZN10dmGraphics20NewVertexDeclarationEPNS_7ContextEPNS_13VertexElementEj
ab:___assert_fail
OXa:_mbedtls_x509_get_alg
VY:__Z21btAlignedFreeInternalPv
TW:__ZNK15btTriangleShape11getNumEdgesEv
g2:__ZN8b2Island5SolveEP9b2ProfileRK10b2TimeStepRK6b2Vec2b
K8:__ZN8dmScript15InitializeHtml5EP9lua_State
VA:__ZN12dmGameSystem16AcquireResourcesEPNS_14PhysicsContextEPN10dmResource16SResourceFactoryEPKvjPNS_23CollisionObjectResourceEPKc
Y0:__ZN22b2GridAndCircleContactD0Ev
I0:__ZNK7b2Timer15GetMillisecondsEv
c8a:_emscripten_glGetFramebufferAttachmentParameteriv__wrapper
VWa:_ssl_write_client_hello
Qsa:__ZL13stbi__get32beP13stbi__context
msa:__ZN12dmHttpClient8Response7ConnectEPKctbi
gL:__ZN9dmPhysics14SetDrawDebug2DEPNS_7World2DEb
Tm:__ZN12dmGameObject16DeleteCollectionEPNS_16CollectionHandleE
J2a:dynCall_fiifii
T4a:_emscripten_glPolygonOffset__wrapper
iZ:__ZN11b2EdgeShapeD0Ev
Oda:_auxiliar_typeerror
Kya:_VP8LTransformColorInverse_C
t3a:dynCall_viififfi
$$:__ZNK7b2World7RayCastEP17b2RayCastCallbackRK6b2Vec2S4_
JWa:_pem_des3_decrypt
fo:__ZN12dmGameObject6RenderEPNS_16CollectionHandleE
hwa:__tr_flush_bits
K0a:___h_errno_location
DT:__ZN32btSphereSphereCollisionAlgorithm21calculateTimeOfImpactEP17btCollisionObjectS1_RK16btDispatcherInfoP16btManifoldResult
W7:__ZN8dmScriptL21BacktraceErrorHandlerEP9lua_State
vn:__ZN12dmGameObjectL11MoveAllDownEPNS_10CollectionEPNS_8InstanceE
Sqa:__ZN7dmCryptL11EncryptXTeaEyPj
Nk:setThrew
sBa:__ZN5dmGui10AddTextureEPNS_5SceneEPKcPvNS_15NodeTextureTypeEjj
ks:__ZN5dmDDF12OutputStream13WriteVarInt32Ej
Ola:_io_tostring
w_:__ZNK16b2PrismaticJoint14IsLimitEnabledEv
Qja:_luaK_self
cB:__ZN12dmGameSystem24ResDisplayProfilesCreateERKN10dmResource20ResourceCreateParamsE
uxa:_VP8LNew
bHa:__ZN5dmGui14FinalizeScriptEP9lua_StatePN8dmScript7ContextE
uMa:_mbedtls_sha1_free
fka:_llex
fUa:_mbedtls_ecp_keypair_init
$Za:___strchrnul
eH:__ZN10dmGraphics13IconifyWindowEPNS_7ContextE
KK:__ZN10dmGraphics12JobQueuePushERKNS_7JobDescE
i1a:_localeconv
XZa:_sprintf
DA:__ZN12dmGameSystem23ResAnimationSetRecreateERKN10dmResource22ResourceRecreateParamsE
xk:FUNCTION_TABLE_viiiifffffif
ZBa:__ZNSt3__227__insertion_sort_incompleteIRN5dmGui19RenderEntrySortPredEPNS1_11RenderEntryEEEbT0_S6_T_
SIa:__ZN7dmSound12GetGroupGainEyPf
Nw:__ZN12dmGameSystem15CompGuiOnReloadERKN12dmGameObject23ComponentOnReloadParamsE
BYa:_chacha20_block
wVa:_mbedtls_hmac_drbg_reseed
Ewa:__ZN16dmConnectionPool6ReopenEPNS_14ConnectionPoolE
sJa:_vorbis_finish_frame
v9:__ZN8dmScript8Sys_LoadEP9lua_State
Zsa:__ZL14resample_row_1PhS_S_ii
mha:_luaC_barrierback
yoa:__ZN7dmInput27GamepadConnectivityCallbackEjbPv
HK:__ZN10dmGraphicsL13OnWindowFocusEi
vga:_luaG_runerror
jU:__ZNK10btBoxShape14getNumVerticesEv
JTa:_mbedtls_ecdh_grp_id
ud:_emscripten_glEnable
pca:_global_connect
wFa:__ZN5dmGuiL13LuaGetTextureEP9lua_State
jga:_lua_sethook
Iha:_forbody
qz:__ZN12dmGameSystem16UpdateTransformsEPNS_15SpineModelWorldE
pLa:_eckey_debug
Cna:__ZN11dmExtension11AppFinalizeEPNS_9AppParamsE
ly:__ZN12dmGameSystem20CompModelGetPropertyERKN12dmGameObject26ComponentGetPropertyParamsERNS0_12PropertyDescE
jIa:__ZN12dmDeviceNull14DeviceNullOpenEPKN7dmSound16OpenDeviceParamsEPPv
Bp:__ZN12dmGameObject16Script_ScreenRayEP9lua_State
Cva:__ZN6dmWebP10DecodeRGBAEPKvmPvmm
J3a:dynCall_viiiiiiiiii
ky:__ZN12dmGameSystemL28CompModelSetConstantCallbackEPvyPjRKN12dmGameObject11PropertyVarE
dsa:__ZN11dmHttpCache20SetConsistencyPolicyEPNS_5CacheENS_17ConsistencyPolicyE
r2:__ZN23b2ChainAndCircleContact8EvaluateEP10b2ManifoldRK11b2TransformS4_
jda:_meth_settimeout_7761
H7a:_emscripten_glTexParameterIuiv__wrapper
gEa:__ZN5dmGui8PickNodeEPNS_5SceneEjff
Qaa:__ZN8dmScriptL5SlerpEP9lua_State
tT:__ZN25btSimulationIslandManager21updateActivationStateEP16btCollisionWorldP12btDispatcher
t:tempBigInt
rTa:_dhm_check_range
Yf:_emscripten_glVertexAttrib1fv
YTa:_mbedtls_ecdsa_from_keypair
Ik:FUNCTION_TABLE_viiiiiiiiiii
_v:__ZN12dmGameSystem19CompFactoryNewWorldERKN12dmGameObject23ComponentNewWorldParamsE
xZ:__ZNK11b2GridShape11ComputeMassEP10b2MassDataf
Uxa:_TransformDC
sIa:__ZN7dmSoundL17MixResampleUpMonoIhLi128ELi255EEEvPKNS_10MixContextEPNS_13SoundInstanceEjjPfj
En:__ZN12dmGameObject13GetWorldScaleEPNS_8InstanceE
yG:__ZN12dmGameSystem27ScriptWindowOnWindowResizedEii
Lwa:_VP8InitDithering
IP:__ZN20btAxisSweep3InternalItE9sortMaxUpEitP12btDispatcherb
SOa:_mbedtls_ssl_reset_checksum
RR:__ZN16btCollisionWorld25serializeCollisionObjectsEP12btSerializer
n9:__ZN8dmScript13InitializeMsgEP9lua_State
jT:__ZN13btGhostObjectD2Ev
Nba:__ZN8dmScript9CheckQuatEP9lua_Statei
Nb:__inet_pton4_raw
mta:__Z15dmLogInitializePK11dmLogParams
Xu:__ZN12dmGameSystem30CompCollectionProxyAddToUpdateERKN12dmGameObject26ComponentAddToUpdateParamsE
To:__ZN12dmGameObject32DestroyPropertyContainerCallbackEm
OB:__ZN12dmGameSystem16ResLabelRecreateERKN10dmResource22ResourceRecreateParamsE
Qla:_math_abs
uwa:__ZN16dmConnectionPool14ConnectionPoolC2EPKNS_6ParamsE
EXa:_ssl_write_supported_elliptic_curves_ext
lva:__ZN5dmSys12ResourceSizeEPKcPj
dna:_match
zua:__ZN8dmSocket5GetFDEi
cv:__GLOBAL__sub_I_comp_collision_object_cpp
Iq:__ZN12dmGameObject16CancelAnimationsEPNS_16CollectionHandleEPNS_8InstanceE
yA:__ZN12dmGameSystem23CompTileGridSetPropertyERKN12dmGameObject26ComponentSetPropertyParamsE
Gd:_emscripten_glGenBuffers
Xv:__ZN12dmGameSystem18CompEmitterDestroyERKN12dmGameObject22ComponentDestroyParamsE
xha:_luaO_pushvfstring
j5a:_emscripten_glMatrixMode__wrapper
mWa:_sha384_update_wrap
Wt:__ZN11dmLoadQueue11CreateQueueEPN10dmResource16SResourceFactoryE
r5:__ZN8dmRender16GetNamedConstantEPNS_19NamedConstantBufferEPKcRN10Vectormath3Aos7Vector4E
z5a:_emscripten_glBeginTransformFeedback__wrapper
Xz:__ZN12dmGameSystemL29CompSpriteSetConstantCallbackEPvyPjRKN12dmGameObject11PropertyVarE
wpa:__ZN10dmParticle19ResetRenderConstantEPNS_7ContextEjyy
SS:__ZN34btSphereTriangleCollisionAlgorithm10CreateFunc24CreateCollisionAlgorithmER36btCollisionAlgorithmConstructionInfoP17btCollisionObjectS4_
kb:___setErrNo
HI:__ZN10dmGraphicsL27OpenGLRegisterFunctionTableEv
_Fa:__ZN5dmGuiL14LuaGetSizeModeEP9lua_State
Zf:_emscripten_glVertexAttrib2f
N4:__ZN8dmRender22RenderListMakeDispatchEPNS_13RenderContextEPFvRKNS_24RenderListDispatchParamsEEPv
Wz:__ZN12dmGameSystem19CompSpriteOnMessageERKN12dmGameObject24ComponentOnMessageParamsE
loa:__ZN7dmInput10NewBindingEPNS_7ContextE
ZB:__ZN12dmGameSystem16AcquireResourcesEPN10dmGraphics7ContextEPN10dmResource16SResourceFactoryEPNS_12MeshResourceEPKc
pQ:__ZN16btDbvtBroadphase9resetPoolEP12btDispatcher
Ms:__ZN11dmHashTableIyPKcE11SetCapacityEjj
cZ:__ZNK13b2CircleShape5CloneEP16b2BlockAllocator
T$:__ZN7b2World12SetDebugDrawEP6b2Draw
fQa:_x509_crt_merge_flags_with_cb
lEa:__ZN5dmGui9CloneNodeEPNS_5SceneEjPj
_ba:_bit_rshift
_ia:_luaL_register
pUa:_mbedtls_ecp_tls_read_point
bya:_VFilter8i
Xf:_emscripten_glVertexAttrib1f
kC:__ZN12dmGameSystem15ResModelPreloadERKN10dmResource21ResourcePreloadParamsE
MBa:__ZN5dmGui17GetNodeTextureSetEPNS_5SceneEj
Bra:_dmHashFinal32
XS:__ZN28btCompoundCollisionAlgorithm17SwappedCreateFuncD0Ev
E0:__ZN16b2StackAllocator8AllocateEi
p4:__ZN8dmRender20GetMaterialUserData2EPNS_8MaterialE
Cq:__ZN12dmGameObjectL23RemoveAnimationCallbackEPNS_9AnimWorldEPNS_9AnimationE
N2a:dynCall_fiiiiif
z:Math_abs
Tg:_glBindTexture
IS:__ZN31btDefaultCollisionConfiguration17getStackAllocatorEv
H$a:_snprintf
Cx:__ZN12dmGameSystemL6ReHashEPNS_13MeshComponentE
a6a:_emscripten_glVertexAttrib1fv__wrapper
vba:__ZN8dmScriptL11Vector3_addEP9lua_State
yfa:_lua_tothread
Ce:_emscripten_glGetVertexAttribiv
JVa:_mbedtls_md_hmac_update
Gz:__ZN12dmGameSystem21CompSpineModelSetSkinEPNS_19SpineModelComponentEy
mCa:__ZN5dmGui14GetSceneScriptEPNS_5SceneE
s3:__ZN8dmRender23ClearDebugRenderObjectsEPNS_13RenderContextE
a8a:_emscripten_glGetProgramInfoLog__wrapper
baa:__ZN8dmScript23TimerInitializeInstanceEPNS_11ScriptWorldE
K2:__ZN24b2PositionSolverManifold10InitializeEP27b2ContactPositionConstraintRK11b2TransformS4_i
NL:__ZN9dmPhysics13DeleteJoint2DEPNS_7World2DEPv
JK:__ZN10dmGraphicsL20IsExtensionSupportedEPKcPKh
DL:__ZN9dmPhysics19SetAngularDamping2DEPvf
z0a:_recv
zN:__ZN18btConstraintSolver9allSolvedERK19btContactSolverInfoP12btIDebugDrawP12btStackAlloc
Za:invoke_viiiiiiiiii
hta:__ZN6dmJson5ParseEPKcjPNS_8DocumentE
V4:__ZN8dmRender19SetProjectionMatrixEPNS_13RenderContextERKN10Vectormath3Aos7Matrix4E
i3:__ZN11b2GearJoint4DumpEv
yr:__ZN5dmDDF11InputBuffer3EofEv
K$a:_ungetc
mi:_glfwGetKey
T4:__ZN8dmRender18GetGraphicsContextEPNS_13RenderContextE
qga:_lua_getinfo
gk:FUNCTION_TABLE_vfi
ek:FUNCTION_TABLE_vff
Qza:_WebPConvertRGBA32ToUV_C
QH:__ZN10dmGraphics21DeleteFragmentProgramEm
_N:__ZN23btDiscreteDynamicsWorld14stepSimulationEfif
E2a:_pthread_mutex_unlock
R_:__ZNK15b2RevoluteJoint14IsMotorEnabledEv
Tga:_luaF_newupval
KE:__ZN12dmGameSystem19LuaModelComp_CancelEP9lua_State
Zs:__ZN10dmResource12LoadResourceEPNS_16SResourceFactoryEPKcS3_PPvPj
AEa:__ZN5dmGuiL23LuaCallbackCustomArgsCBEP9lua_StatePv
q5a:_emscripten_glFrontFace__wrapper
z$a:___fflush_unlocked
Hp:__ZN12dmGameObjectL20ScriptInstanceGetURLEP9lua_State
I3:__ZN8dmRender13DeleteFontMapEPNS_7FontMapE
xya:_DC16NoTopLeft
rga:_getobjname
uSa:_des3_ctx_free
vR:__ZN23btCollisionPairCallback14processOverlapER16btBroadphasePair
Jqa:__ZN12dmConfigFileL8AddEntryEPNS_7ContextEPKcS3_
l$:__ZN6b2Body13ResetMassDataEv
Oha:_assignment
xG:__ZN12dmGameSystem27ScriptWindowOnWindowCreatedEii
MNa:_ssl_buffering_free
_B:__ZN12dmGameSystemL13BuildVerticesEPNS_12MeshResourceE
sl:__Z15InitializeAstarPN11dmExtension6ParamsE
Jwa:_WebPInitDecBufferInternal
eda:_meth_setfd_7753
yXa:_ssl_parse_alpn_ext
Lta:__ZN9dmMessage8DispatchEyPFvPNS_7MessageEPvES2_
n2:__Z23b2CollideEdgeAndPolygonP10b2ManifoldPK11b2EdgeShapeRK11b2TransformPK14b2PolygonShapeS6_
oRa:_mbedtls_mpi_cmp_int
Ix:__ZN12dmGameSystemL18RenderListDispatchERKN8dmRender24RenderListDispatchParamsE_2222
oF:__ZN12dmGameSystemL4LoadEP9lua_State
YWa:_ssl_parse_certificate_request
Ao:__ZN12dmGameObject12PropertyDescC2Ev
xqa:__ZN8dmBuffer13GetNumStreamsEjPj
pJa:_is_whole_packet_present
sAa:_crc32
hAa:_Init
oO:__ZN23btDiscreteDynamicsWorld11clearForcesEv
yV:__ZN17btConvexHullShapeC2EPKfii
P4a:_emscripten_glClearDepthf__wrapper
Rfa:_lua_getfenv
m1a:_mkdir
mRa:_mpi_mul_hlp
$G:__ZN10dmGraphics10InitializeEv
ej:_pthread_cond_init
S8a:_emscripten_glVertexAttribPointer__wrapper
dWa:_sha224_finish_wrap
Jt:__ZN10dmResource12NewPreloaderEPNS_16SResourceFactoryERK7dmArrayIPKcE
Qd:_emscripten_glGetActiveUniformName
QB:__ZN12dmGameSystem15ResLightDestroyERKN10dmResource21ResourceDestroyParamsE
_Ua:_ecp_group_load
TLa:_mbedtls_rsa_public
aka:_luaX_lexerror
COa:_mbedtls_ssl_own_cert
Ura:__ZN11dmHttpCache5BeginEPNS_5CacheEPKcS3_jPPNS_12CacheCreatorE
RJa:__ZN12dmSoundCodec10WavGetInfoEPvPNS_4InfoE
GYa:_mbedtls_chachapoly_setkey
jma:_math_random
Boa:__ZN10dmParticle7ContextC2Ejj
EVa:_mbedtls_md_starts
Cba:__ZN8dmScriptL9Vector_gcEP9lua_State
k3:__ZN11b2GearJoint23InitVelocityConstraintsERK12b2SolverData
Z0a:_hstrerror
NBa:__ZN5dmGui21GetNodeAnimationFrameEPNS_5SceneEj
d7a:_emscripten_glGetVertexAttribPointerv__wrapper
qra:__ZN11dmHashTableIy16ReverseHashEntryE3PutEyRKS0_
aN:__ZN9dmPhysics11DebugDraw3D16drawContactPointERK9btVector3S3_fiS3_
oX:__ZN6btDbvtC2Ev
Vja:_codearith
Gba:__ZN8dmScriptL15Vector_newindexEP9lua_State
Dda:_socket_ioerror
XAa:__ZN5dmGui21GetPhysicalResolutionEPNS_5SceneERjS2_
xia:_luaV_gettable
Iv:__ZN12dmGameSystem12DestroyJointEPvS0_y
Oq:__ZN12dmGameObject17CompScriptDestroyERKNS_22ComponentDestroyParamsE
vXa:_ssl_parse_extended_ms_ext
h8a:_emscripten_glDrawElements__wrapper
UZ:__ZN9b2Simplex9ReadCacheEPK14b2SimplexCachePK15b2DistanceProxyRK11b2TransformS5_S8_
Zga:_luaF_freeclosure
CEa:__ZN5dmGui18LuaCancelAnimationEP9lua_State
pU:__ZNK10btBoxShape8isInsideERK9btVector3f
s4:__ZN8dmRender22SetMaterialVertexSpaceEPNS_8MaterialEN11dmRenderDDF12MaterialDesc11VertexSpaceE
tUa:_mbedtls_ecp_check_privkey
vBa:__ZN5dmGui13ClearTexturesEPNS_5SceneE
ANa:_mbedtls_ssl_out_hdr_len
j6:__ZN8dmRenderL31RenderScriptInstanceResolvePathEP9lua_State
hba:__ZN8dmScriptL7Quat_eqEP9lua_State
UNa:_mbedtls_ssl_hs_hdr_len
FI:_GraphicsAdapterOpenGL
TIa:__ZN7dmSound13GetGroupCountEv
vQ:__ZN18btDbvtTreeColliderD0Ev
wSa:_des3_set2key_dec_wrap
C1:__ZNK13b2PulleyJoint16GetReactionForceEf
fra:__ZN5dmDNS13GetHostByNameEPKcPN8dmSocket7AddressEPNS_7ChannelEbb
IUa:_ecp_double_jac
mPa:_mbedtls_ssl_get_max_out_record_payload
oua:__ZN9dmProfile12ProfileScope10StartScopeEjPKcj
M6:__ZN8dmRender7CommandC2ENS_11CommandTypeEmm
ora:__ZN11dmHashTableIj16ReverseHashEntryE11SetCapacityEjj
Nl:__ZN3Map5SolveEv
yAa:_VP8ParseIntraModeRow
Ifa:_lua_pushboolean
Ta:invoke_viiiiii
IWa:_pem_get_iv
YK:__ZN9dmPhysics7World2DC2EPNS_9Context2DERKNS_14NewWorldParamsE
tha:_luaO_fb2int
Ax:__ZN12dmGameSystem14CompMeshCreateERKN12dmGameObject21ComponentCreateParamsE
_za:_VP8LDoFillBitWindow
nva:__ZN8dmThread3NewEPFvPvEjS0_PKc
fj:_pthread_create
oZa:___shlim
DUa:_ecp_normalize_jac
vt:__ZN17dmResourceArchive25ReloadBundledArchiveIndexEPKcS1_S1_S1_RPNS_21ArchiveIndexContainerERPv
Q7:__ZN8dmScript23GetInstanceContextValueEP9lua_State
zLa:_pk_get_rsapubkey
f6:__ZN8dmRenderL29RenderScriptInstance_tostringEP9lua_State
Cqa:__ZN12dmConfigFile10ParseErrorEPNS_7ContextENS_6ResultE
NH:__ZN10dmGraphics19ReloadVertexProgramEmPNS_10ShaderDesc6ShaderE
Pd:_emscripten_glGetActiveUniformBlockiv
YR:__ZN16btCollisionWorld13rayTestSingleERK11btTransformS2_P17btCollisionObjectPK16btCollisionShapeS2_RNS_17RayResultCallbackE
kp:__ZN12dmGameObject18Script_SetRotationEP9lua_State
aaa:__ZN8dmScript22TimerUpdateScriptWorldEPNS_11ScriptWorldEf
g:HEAPF32
F_:__ZNK15b2RevoluteJoint10GetAnchorAEv
xja:_luaK_ret
iz:__ZN12dmGameSystemL26CompSpineModelPoseCallbackEPvS0_
T:enlargeMemory
z2a:_memcpy
db:___cxa_begin_catch
bsa:__ZN11dmHttpCache11SetVerifiedEPNS_5CacheEPKcb
Dja:_luaK_stringK
Vn:__ZN12dmGameObject17SetBoneTransformsEPNS_8InstanceERN11dmTransform9TransformEPS3_j
se:_emscripten_glGetUniformBlockIndex
nz:__ZN12dmGameSystem20CompSpineModelCreateERKN12dmGameObject21ComponentCreateParamsE
Y8a:_emscripten_glGetTransformFeedbackVarying__wrapper
nd:_emscripten_glDisablei
u0:__ZN13b2DynamicTree7BalanceEi
OT:__ZN11btUnionFind5resetEi
gLa:_rsa_free_wrap
hya:_DC4
GCa:__ZN5dmGui15SetNodePropertyEPNS_5SceneEjNS_8PropertyERKN10Vectormath3Aos7Vector4E
raa:__ZN8dmScriptL11Vector4_newEP9lua_State
oia:_luaH_getn
Yva:_fill_window
yxa:_DecodeImageStream
Eea:_opt_set_broadcast
bc:_dmSysGetUserPersistentDataRoot
U:getTotalMemory
Im:__ZN11dmHashTableIyPN12dmGameObject10CollectionEE5EraseEy
HBa:__ZN5dmGui14GetLayoutCountEPNS_5SceneE
iPa:_mbedtls_ssl_conf_rng
YI:__ZN10dmGraphicsL18OpenGLResizeWindowEPNS_7ContextEjj
Kr:__ZN5dmDDF7MessageC2EPKNS_10DescriptorEPcjb
lO:__ZN23btDiscreteDynamicsWorld13getConstraintEi
fC:__ZN12dmGameSystem17ResMeshSetPreloadERKN10dmResource21ResourcePreloadParamsE
mL:__ZN9dmPhysics14NewGridShape2DEPNS_9Context2DEPvRKN10Vectormath3Aos6Point3Ejjjj
$Y:__ZN15CProfileManager23Increment_Frame_CounterEv
GMa:_mbedtls_sha256_update_ret
n2a:_llvm_cttz_i32
dL:__ZN9dmPhysicsL8FlipBodyEPvff
WHa:__ZN12dmLiveUpdate18StoreResourceAsyncEPN10dmResource8ManifestEPKcjPKN17dmResourceArchive18LiveUpdateResourceEPFvPNS_25StoreResourceCallbackDataEERS9_
rza:_UpsampleBgrLinePair
km:__ZN12dmGameObject9PrototypeD2Ev
Pea:_opt_get_ip_multicast_if
MM:__ZN9dmPhysics11DebugDraw2DD0Ev
oW:__ZN17btGjkPairDetectorD0Ev
Gla:_io_readline
nP:__ZNK23btGeneric6DofConstraint8getAngleEi
Fla:_g_iofile
Mk:establishStackSpace
Wy:__ZN12dmGameSystem16CompSoundDestroyERKN12dmGameObject22ComponentDestroyParamsE
yFa:__ZN5dmGuiL14LuaGetFlipbookEP9lua_State
oc:_emscripten_glBindBufferRange
D7:__ZN8dmScript15SetContextValueEPNS_7ContextE
Kw:__ZN12dmGameSystemL18RenderListDispatchERKN8dmRender24RenderListDispatchParamsE
Rta:__ZN7dmMutex4LockEPNS_5MutexE
TPa:_x509_get_ns_cert_type
t_:__ZN16b2PrismaticJointC2EPK19b2PrismaticJointDef
Pm:__ZN12dmGameObjectL9MoveAllUpEPNS_10CollectionEPNS_8InstanceE
eY:__ZN33btConvexConcaveCollisionAlgorithm22getAllContactManifoldsER20btAlignedObjectArrayIP20btPersistentManifoldE
b9:__ZN8dmScript12ClearModulesEPNS_7ContextE
Fza:_VP8YUVInit
F0a:_htons
mva:__ZN5dmSys12LoadResourceEPKcPvjPj
s:tempInt
Oia:_luaL_checklstring
X5a:_emscripten_glGenRenderbuffers__wrapper
X6:__ZN8dmScript7ContextD2Ev
NFa:__ZN5dmGuiL13LuaGetYAnchorEP9lua_State
UDa:__ZN5dmGui19SetNodePieFillAngleEPNS_5SceneEjf
fT:__ZN16btEmptyAlgorithm16processCollisionEP17btCollisionObjectS1_RK16btDispatcherInfoP16btManifoldResult
GM:__ZN9dmPhysics15RayCastResponseC2Ev
ub:___syscall196
tb:___syscall195
OL:__ZN9dmPhysics23GetJointReactionForce2DEPNS_7World2DEPvRN10Vectormath3Aos7Vector3Ef
n7a:_emscripten_glGetShaderiv__wrapper
oC:__ZN12dmGameSystem16ResModelRecreateERKN10dmResource22ResourceRecreateParamsE
kfa:_lua_typename
$ga:_luaC_separateudata
LGa:__ZN5dmGuiL20CloneNodeListToTableEP9lua_StatePNS_5SceneEtj
jz:__ZN12dmGameSystemL27CompSpineModelEventCallbackEN5dmRig12RigEventTypeEPvS2_S2_
vsa:__ZN12dmHttpClientL9DoRequestEPNS_6ClientEPKcS3_
rk:FUNCTION_TABLE_viififfi
L:Math_ceil
FQa:_mbedtls_asn1_get_bool
ga:invoke_iifif
_wa:_ExportAlpha
n4a:_emscripten_glGetUniformBlockIndex__wrapper
LLa:_rsa_check_context
mO:__ZNK23btDiscreteDynamicsWorld13getConstraintEi
N4a:_emscripten_glFrustum__wrapper
iI:__ZN10dmGraphics16SetPolygonOffsetEPNS_7ContextEff
nC:__ZN12dmGameSystem15ResModelDestroyERKN10dmResource21ResourceDestroyParamsE
LIa:__ZN7dmSound16NewSoundInstanceEPNS_9SoundDataEPPNS_13SoundInstanceE
$Q:__ZZN28btHashedOverlappingPairCache19cleanProxyFromPairsEP17btBroadphaseProxyP12btDispatcherEN17CleanPairCallbackD0Ev
uA:__ZN12dmGameSystem21CompTileGridOnMessageERKN12dmGameObject24ComponentOnMessageParamsE
ypa:__ZN10dmParticle22GetMaxVertexBufferSizeEPNS_7ContextENS_20ParticleVertexFormatE
gb:___gxx_personality_v0
PL:__ZN9dmPhysics24GetJointReactionTorque2DEPNS_7World2DEPvRff
bja:_luaL_gsub
IJa:_stb_vorbis_seek_start
cc:_dmSysGetUserPreferredLanguage
uRa:_mbedtls_mpi_read_binary_le
tea:_io_strerror
FBa:__ZN5dmGui9AddLayoutEPNS_5SceneEPKc
lA:__ZN12dmGameSystemL6ReHashEPNS_17TileGridComponentE
my:__ZN12dmGameSystemL28CompModelGetConstantCallbackEPvyPPN8dmRender8ConstantE
BY:__ZN31btConvexPlaneCollisionAlgorithm22getAllContactManifoldsER20btAlignedObjectArrayIP20btPersistentManifoldE
oT:__ZN16btManifoldResultD0Ev
wI:__ZN10dmGraphics16GetTextureHeightEPNS_7TextureE
FOa:_ssl_parse_certificate_chain
CW:__ZNK20btPersistentManifold13getCacheEntryERK15btManifoldPoint
iya:_TM4
q9:__ZN8dmScriptL9URL_indexEP9lua_State
Lla:_f_setvbuf
JT:__ZN34btSphereTriangleCollisionAlgorithm21calculateTimeOfImpactEP17btCollisionObjectS1_RK16btDispatcherInfoP16btManifoldResult
n3:__ZN11b2GearJointC2EPK14b2GearJointDef
gpa:__ZN10dmParticle21GetEmitterVertexCountEPNS_7ContextEjj
Zba:_bit_lshift
bk:FUNCTION_TABLE_vdd
Lea:_opt_set_linger
yo:__ZN12dmGameObject22RegisterComponentTypesEPN10dmResource16SResourceFactoryEPNS_8RegisterEPN8dmScript7ContextE
qm:__ZN12dmGameObject11PropertyVarC2EN10Vectormath3Aos7Vector4E
bUa:_mbedtls_ecp_curve_info_from_tls_id
sga:_symbexec
TKa:_mbedtls_pk_verify_ext
Dha:_test_then_block
LP:__ZN20btAxisSweep3InternalItE12removeHandleEtP12btDispatcher
Ii:_glfwSetWindowSizeCallback
zC:__ZN12dmGameSystem26ResRenderPrototypeRecreateERKN10dmResource22ResourceRecreateParamsE
v5a:_emscripten_glStencilMask__wrapper
Xs:__ZN10dmResource12RegisterTypeEPNS_16SResourceFactoryEPKcPvPFNS_6ResultERKNS_21ResourcePreloadParamsEEPFS5_RKNS_20ResourceCreateParamsEEPFS5_RKNS_24ResourcePostCreateParamsEEPFS5_RKNS_21ResourceDestroyParamsEEPFS5_RKNS_22ResourceRecreateParamsEE
z1:__ZN12b2MouseJointC2EPK15b2MouseJointDef
jPa:_mbedtls_ssl_set_bio
Moa:__ZNSt3__26__sortIRN10dmParticle8SortPredEPNS1_8ParticleEEEvT0_S6_T_
ePa:_mbedtls_ssl_conf_endpoint
iba:__ZN8dmScriptL16Vector4_tostringEP9lua_State
iaa:__ZN8dmScript15InitializeTimerEPNS_7ContextE
P:Math_clz32
CXa:_ssl_write_renegotiation_ext
V2:__ZN15b2DistanceJointC2EPK18b2DistanceJointDef
npa:__ZN10dmParticle23GetInstanceEmitterCountEPNS_7ContextEj
UX:__ZN28btCompoundCollisionAlgorithm16processCollisionEP17btCollisionObjectS1_RK16btDispatcherInfoP16btManifoldResult
zn:__ZN12dmGameObject16UpdateTransformsEPNS_10CollectionE
sfa:_lua_tointeger
sw:__ZN12dmGameSystem27FetchTextureSetAnimCallbackEPvyPN5dmGui18TextureSetAnimDescE
E_:__ZN16b2PrismaticJoint16SetMaxMotorForceEf
wS:__ZZN16btCollisionWorld17objectQuerySingleEPK13btConvexShapeRK11btTransformS5_P17btCollisionObjectPK16btCollisionShapeS5_RNS_20ConvexResultCallbackEfEN32BridgeTriangleConvexcastCallbackD0Ev
HCa:__ZN5dmGui17SetNodeResetPointEPNS_5SceneEj
BOa:_mbedtls_ssl_ciphersuite_uses_srv_cert
via:_luaV_tonumber
boa:__ZN5dmHID5FinalEPNS_7ContextE
$i:_nanosleep
yW:__ZZN33btMinkowskiPenetrationDepthSolver12calcPenDepthER22btVoronoiSimplexSolverPK13btConvexShapeS4_RK11btTransformS7_R9btVector3S9_S9_P12btIDebugDrawP12btStackAllocEN20btIntermediateResult20setShapeIdentifiersBEii
Xl:__ZN11micropather11MicroPather16GetNodeNeighborsEPNS_8PathNodeEPNS_8MPVectorINS_8NodeCostEEE
eI:__ZN10dmGraphics14SetStencilMaskEPNS_7ContextEj
wN:__ZN35btSequentialImpulseConstraintSolverD0Ev
J6a:_emscripten_glVertexAttribI4ubv__wrapper
UPa:_x509_get_certificate_policies
s7:__ZN8dmScript15IsInstanceValidEP9lua_State
J8a:_emscripten_glBindBufferRange__wrapper
gg:_emscripten_glVertexAttribI1ui
Yka:_luaopen_debug
ama:_math_frexp
di:_glfwAccelerometerEnable
Msa:__ZL15load_jpeg_imageP10stbi__jpegPiS1_S1_i
iE:__ZN12dmGameSystem31CollectionFactoryComp_GetStatusEP9lua_State
HFa:__ZN5dmGuiL11LuaSetLayerEP9lua_State
nZ:__ZNK11b2EdgeShape11ComputeAABBEP6b2AABBRK11b2Transformi
tJ:__ZN10dmGraphics27OpenGLHashVertexDeclarationEP11HashState32PNS_17VertexDeclarationE
sZa:___uflow
w7a:_emscripten_glGetBooleani_v__wrapper
Nha:_primaryexp
Lv:__ZN12dmGameSystem14SetJointParamsEPvS0_yRKN9dmPhysics18ConnectJointParamsE
AJa:_imdct_step3_iter0_loop
CHa:__ZN7dmCrashL16Crash_GetModulesEP9lua_State
hs:__ZN5dmDDF12OutputStreamC2EPFbPvPKvjES1_
jqa:__GLOBAL__sub_I_rig_ddf_cpp
Ku:__ZN12dmGameSystem32CompCollectionFactoryAddToUpdateERKN12dmGameObject26ComponentAddToUpdateParamsE
O6a:_emscripten_glTexParameterf__wrapper
KHa:__ZN7dmCrash16SetCrashFilenameEPKc
OCa:__ZN5dmGui19SetNodeTextTrackingEPNS_5SceneEjf
p4a:_emscripten_glGetFragDataLocation__wrapper
XL:__ZN9dmPhysics14SetDrawDebug3DEPNS_7World3DEb
Q5a:_emscripten_glGetFloatv__wrapper
jra:__Z9dmStrlCatPcPKcm
uu:__ZN12dmGameSystem15OnWindowResizedEii
iea:_inet_global_gethostname
Dna:__ZN11dmExtension13DispatchEventEPNS_6ParamsEPKNS_5EventE
ta:invoke_vdd
Ij:FUNCTION_TABLE_fiii
aR:__ZZN28btHashedOverlappingPairCache19cleanProxyFromPairsEP17btBroadphaseProxyP12btDispatcherEN17CleanPairCallback14processOverlapER16btBroadphasePair
Nea:_opt_set_ip_multicast_ttl
Wx:__ZN12dmGameSystemL18OnResourceReloadedEPNS_10ModelWorldEPNS_14ModelComponentEi
Vta:__ZN6dmPath6ConcatEPKcS1_Pcj
_H:__ZN10dmGraphics11EnableStateEPNS_7ContextENS_5StateE
qQa:_x509_crt_check_cn
Lsa:__ZL24stbi__decode_jpeg_headerP10stbi__jpegi
D$a:___pthread_self_553
Sha:_recfield
dQ:__ZN16btDbvtBroadphaseD2Ev
cAa:_VP8LColorCacheCopy
Dpa:__ZN5dmRig13DeleteContextEPNS_10RigContextE
J0:__ZN9b2Contact6CreateEP9b2FixtureiS1_iP16b2BlockAllocator
Hca:_meth_setoption
b5a:_emscripten_glDeleteProgram__wrapper
Gu:__ZN12dmGameSystem29CompCollectionFactoryNewWorldERKN12dmGameObject23ComponentNewWorldParamsE
pwa:__ZN19dmConditionVariable3NewEv
jMa:_mbedtls_rsa_pkcs1_sign
SRa:_get_pkcs_padding
kPa:_mbedtls_ssl_set_hostname
Oz:__ZN12dmGameSystemL13PlayAnimationEPNS_15SpriteComponentEyff
Eaa:__ZN8dmScriptL16Matrix4_FromQuatEP9lua_State
Y$a:_fgetc
Rsa:__ZL13stbi__do_zlibP10stbi__zbufPciii
Vv:__ZN12dmGameSystem22CompEmitterDeleteWorldERKN12dmGameObject26ComponentDeleteWorldParamsE
lsa:__GLOBAL__sub_I_http_client_cpp
L$a:_fgets
_8:__ZN8dmScript9AddModuleEPNS_7ContextEPN8dmLuaDDF9LuaSourceEPKcPvy
Kla:_f_seek
H0:__ZN7b2Timer5ResetEv
xJ:__ZN10dmGraphicsL24OpenGLNewFragmentProgramEPNS_7ContextEPNS_10ShaderDesc6ShaderE
oIa:__ZN12dmDeviceNull17DeviceNullRestartEPv
PA:__ZN12dmGameSystemL16AcquireResourcesEPN10dmResource16SResourceFactoryEPNS_25CollectionFactoryResourceE
VEa:__ZN5dmGui16LuaPlaySpineAnimEP9lua_State
sK:__ZN10dmGraphicsL23OpenGLGetMaxTextureSizeEPNS_7ContextE
uza:_UpsampleRgba4444LinePair
X5:__ZN8dmRender27RenderScript_GetWindowWidthEP9lua_State
Ca:invoke_vifff
sN:__ZN9dmPhysics18OverlapCacheRemoveEPNS_12OverlapCacheEPv
md:_emscripten_glDisableVertexAttribArray
JR:__ZN16btCollisionWorld11updateAabbsEv
Io:__ZN12dmGameObject30CreatePropertyContainerBuilderERKNS_27PropertyContainerParametersE
zGa:__ZN5dmGuiL26LuaSetFlipbookPlaybackRateEP9lua_State
Dya:_DC8uvNoLeft
LE:__ZN12dmGameSystem18LuaModelComp_GetGOEP9lua_State
qTa:_dhm_read_bignum
ad:_emscripten_glDeleteObjectARB
IIa:__ZN7dmSound12SetSoundDataEPNS_9SoundDataEPKvj
vCa:__ZN5dmGui10ClearNodesEPNS_5SceneE
tna:_ll_loadlib
TRa:_add_one_and_zeros_padding
pr:__ZN5dmDDFL20DDFCountSaveFunctionEPvPKvj
HEa:__ZN5dmGui11LuaSetScaleEP9lua_State
T2:__ZN15b2DistanceJoint24SolveVelocityConstraintsERK12b2SolverData
Oa:invoke_viiii
f$:__ZN11b2RopeJoint24SolveVelocityConstraintsERK12b2SolverData
gza:_MapARGB
q5:__ZN8dmRender16SetNamedConstantEPNS_19NamedConstantBufferEPKcN10Vectormath3Aos7Vector4E
dFa:__ZN5dmGui23LuaSetSpinePlaybackRateEP9lua_State
U0:__ZN23b2EdgeAndPolygonContactD0Ev
LR:__ZN16btCollisionWorld15debugDrawObjectERK11btTransformPK16btCollisionShapeRK9btVector3
YVa:_sha1_finish_wrap
EYa:_mbedtls_chachapoly_init
wi:_glfwOpenWindow
Ft:__ZN17dmResourceArchive9FindEntryEPNS_21ArchiveIndexContainerEPKhPNS_9EntryDataE
_ca:_meth_getpeername_7743
paa:__ZN8dmScriptL10Vector_newEP9lua_State
hq:__ZN12dmGameObject13ResLuaDestroyERKN10dmResource21ResourceDestroyParamsE
twa:__ZN16dmConnectionPool3NewEPKNS_6ParamsEPPNS_14ConnectionPoolE
Gj:FUNCTION_TABLE_fif
zha:_luaO_chunkid
Vwa:_CustomPut
cC:__ZN12dmGameSystemL24ResourceReloadedCallbackERKN10dmResource22ResourceReloadedParamsE_3104
uia:_luaU_header
cka:_luaX_newstring
Eua:__ZN8dmSocket8ShutdownEiNS_12ShutdownTypeE
X$:__ZN7b2World11CreateJointEPK10b2JointDef
_a:invoke_viiiiiiiiiii
HF:__ZN12dmGameSystemL23Sound_IsPhoneCallActiveEP9lua_State
QBa:__ZN11dmHashTableIyN5dmGui14DynamicTextureEE5EraseEy
YOa:_mbedtls_ssl_init
B5:__ZN8dmRender32RenderScript_SetRenderTargetSizeEP9lua_State
y7a:_emscripten_glBindBufferBase__wrapper
Rua:__ZN8dmSocket17AddressToIPStringENS_7AddressE
UA:__ZN12dmGameSystem26ResCollectionProxyRecreateERKN10dmResource22ResourceRecreateParamsE
hea:_inet_global_getnameinfo
rY:__ZN23btConvexConvexAlgorithm16processCollisionEP17btCollisionObjectS1_RK16btDispatcherInfoP16btManifoldResult
aYa:_x509_check_time
dfa:_lua_gettop
J3:__ZN8dmRender10SetFontMapEPNS_7FontMapERNS_13FontMapParamsE
O$a:___fseeko
fk:FUNCTION_TABLE_vffff
zt:__ZN17dmResourceArchive11LoadArchiveEPKcS1_S1_PPNS_21ArchiveIndexContainerE
fO:__ZN23btDiscreteDynamicsWorld23synchronizeMotionStatesEv
H7:__ZN8dmScript26SetScriptWorldContextValueEPNS_11ScriptWorldE
DMa:_mbedtls_sha256_clone
FYa:_mbedtls_chachapoly_free
CBa:__ZN5dmGui10ClearFontsEPNS_5SceneE
Ph:_glReadPixels
lQ:__ZN16btDbvtBroadphase25calculateOverlappingPairsEP12btDispatcher
xK:__ZN10dmGraphicsL26OpenGLGetMaxElementIndicesEPNS_7ContextE
Jc:_emscripten_glClearBufferuiv
R9:__ZN8dmScript9PushTableEP9lua_StatePKcj
Hla:_f_flush
apa:__ZN10dmParticle8SetScaleEPNS_7ContextEjf
wRa:_mpi_bigendian_to_host
VD:__ZN12dmGameSystemL8GetBytesEP9lua_State
Hw:__ZN12dmGameSystemL10NewTextureEPN5dmGui5SceneEjjN7dmImage4TypeEPKvPv
Hh:_glGetProgramiv
q6:__ZN8dmRender15NewRenderScriptEPNS_13RenderContextEPN8dmLuaDDF9LuaSourceE
Rh:_glScissor
W3:__ZN8dmRender22GetFontMapResourceSizeEPNS_7FontMapE
KT:__ZN34btSphereTriangleCollisionAlgorithm22getAllContactManifoldsER20btAlignedObjectArrayIP20btPersistentManifoldE
Kb:__exit
dHa:__ZN7dmCrash13IsInitializedEv
Nma:_sort_comp
Ro:__ZN12dmGameObjectL9PushEntryEPNS_24PropertyContainerBuilderEPNS_17PropertyContainerEj
m3a:dynCall_vifff
oz:__ZN12dmObjectPoolIPN12dmGameSystem19SpineModelComponentEE5AllocEv
t7a:_emscripten_glStencilFunc__wrapper
kN:__ZN12btIDebugDraw7drawBoxERK9btVector3S2_RK11btTransformS2_
Rr:__ZN5dmDDF7Message16ReadMessageFieldEPNS_11LoadContextENS_8WireTypeEPKNS_15FieldDescriptorEPNS_11InputBufferE
lY:__ZN33btConvexConcaveCollisionAlgorithmC2ERK36btCollisionAlgorithmConstructionInfoP17btCollisionObjectS4_b
jYa:_camellia_feistel
Jy:__ZN12dmGameSystem19GetResourcePropertyEPN10dmResource16SResourceFactoryEPvRN12dmGameObject12PropertyDescE
cN:__ZN9dmPhysics11DebugDraw3D10draw3dTextERK9btVector3PKc
eEa:__ZN5dmGui20PlayNodeFlipbookAnimEPNS_5SceneEjPKcffPFvS1_jbPvS4_ES4_S4_
js:__ZN5dmDDF12OutputStream8WriteTagEjNS_8WireTypeE
JD:__ZN12dmGameSystem14SetStreamValueIfEEvPvid
G8:__ZN8dmScriptL14Script_HashMD5EP9lua_State
Pq:__ZN12dmGameObject14CompScriptInitERKNS_19ComponentInitParamsE
NQ:__ZN28btHashedOverlappingPairCache37removeOverlappingPairsContainingProxyEP17btBroadphaseProxyP12btDispatcher
f0:__ZN15b2ContactFilterD2Ev
$Aa:__ZN5dmGui18SetDisplayProfilesEPNS_7ContextEPv
vJa:_get_bits
Kaa:__ZN8dmScriptL3DotEP9lua_State
Yca:_meth_getfamily_7739
$Fa:__ZN5dmGuiL14LuaSetSizeModeEP9lua_State
Afa:_lua_pushnil
Nra:__ZN11dmHttpCache4OpenEPNS_9NewParamsEPPNS_5CacheE
HUa:_ecp_randomize_jac
PZ:__Z19b2ClipSegmentToLineP12b2ClipVertexPKS_RK6b2Vec2fi
Dh:_glGetAttribLocation
FFa:__ZN5dmGuiL10LuaSetFontEP9lua_State
mpa:__ZN10dmParticle15GetEmitterCountEPNS_9PrototypeE
m6:__ZN8dmRenderL18RenderScriptGetURLEP9lua_State
rna:_findfile
Fx:__ZN12dmGameSystem19CompMeshAddToUpdateERKN12dmGameObject26ComponentAddToUpdateParamsE
Zy:__ZN12dmGameSystem15CompSoundUpdateERKN12dmGameObject22ComponentsUpdateParamsERNS0_22ComponentsUpdateResultE
q7:__ZN8dmScript11GetInstanceEP9lua_State
dV:__ZN15btCompoundShape23removeChildShapeByIndexEi
Joa:__ZN10dmParticle14ReloadInstanceEPNS_7ContextEjb
HW:__ZN25btTriangleRaycastCallback15processTriangleEP9btVector3ii
M:Math_imul
Hya:_TransformOne
zFa:__ZN5dmGuiL15LuaPlayFlipbookEP9lua_State
qwa:__ZN19dmConditionVariable6DeleteEPNS_17ConditionVariableE
Cca:_meth_setstats
fIa:__ZN12dmLiveUpdate15HexDigestLengthEN15dmLiveUpdateDDF13HashAlgorithmE
HLa:_mbedtls_platform_zeroize
s2a:_bitshift64Lshr
WI:__ZN10dmGraphicsL21OpenGLGetWindowHeightEPNS_7ContextE
g_a:_out
qza:_UpsampleRgbaLinePair
xva:__ZN5dmURI5ParseEPKcPNS_5PartsE
yP:__ZN20btAxisSweep3InternalItE25calculateOverlappingPairsEP12btDispatcher
kra:__Z12dmStrCaseCmpPKcS0_
era:__ZN5dmDNS13DeleteChannelEPNS_7ChannelE
CL:__ZN9dmPhysics19GetAngularDamping2DEPv
E7a:_emscripten_glBindFragDataLocation__wrapper
J6:__GLOBAL__sub_I_render_ddf_cpp
tG:__ZN12dmGameSystem20ScriptWindowFinalizeERKNS_16ScriptLibContextE
fja:_luaL_pushresult
RH:__ZN10dmGraphics13EnableProgramEPNS_7ContextEm
f5a:_emscripten_glDeleteObjectARB__wrapper
by:__ZN12dmGameSystem15CompModelCreateERKN12dmGameObject21ComponentCreateParamsE
PC:__ZN12dmGameSystem15ResSoundDestroyERKN10dmResource21ResourceDestroyParamsE
uG:__ZN12dmGameSystem25ScriptWindowOnWindowFocusEb
kYa:_mbedtls_camellia_setkey_dec
Kna:__ZN5dmHID24IsAccelerometerConnectedEPNS_7ContextE
ZEa:__ZN5dmGui16LuaGetSpineSceneEP9lua_State
SN:__ZN23btDiscreteDynamicsWorldD2Ev
aea:_protected_
uF:__ZN12dmLiveUpdate27Resource_GetCurrentManifestEP9lua_State
lHa:__ZN7dmCrash12GetExtraDataEi
Kx:__ZN12dmGameSystemL18FillAndApplyStreamEPKNS_14BufferResourceEbRKN10Vectormath3Aos7Matrix4EyN11dmBufferDDF9ValueTypeEPvSA_
w2a:_llvm_minnum_f64
qx:__ZN12dmGameSystem15CompLightCreateERKN12dmGameObject21ComponentCreateParamsE
ZCa:__ZN5dmGui13SetNodeParentEPNS_5SceneEjjb
L0a:_connect
rX:__ZN6btDbvt5clearEv
XE:__GLOBAL__sub_I_script_physics_cpp
xx:__ZN12dmObjectPoolIPN12dmGameSystem13MeshComponentEE11SetCapacityEj
Z2a:dynCall_iiiiiiii
nXa:_ssl_check_server_ecdh_params
ROa:_ssl_update_checksum_sha256
Co:__ZN12dmGameObject13NewPropertiesERKNS_19NewPropertiesParamsE
HDa:__ZN5dmGui19SetNodeClippingModeEPNS_5SceneEjNS_12ClippingModeE
naa:__ZN8dmScript9ToMatrix4EP9lua_Statei
vs:__ZN10dmResource26SetDefaultNewFactoryParamsEPNS_16NewFactoryParamsE
wo:__ZN7dmVMath11QuatToEulerEffff
VZa:___DOUBLE_BITS_314
t6:__ZN8dmRender18ReloadRenderScriptEPNS_13RenderContextEPNS_12RenderScriptEPN8dmLuaDDF9LuaSourceE
RV:__ZN34btPolyhedralConvexAabbCachingShape15setLocalScalingERK9btVector3
W_:__ZN15b2RevoluteJoint11EnableLimitEb
dSa:_mbedtls_cipher_finish
efa:_lua_settop
C2a:_pthread_mutex_lock
Ps:__ZN11dmHashTableIyN10dmResource19SResourceDescriptorEE3PutEyRKS1_
dEa:__ZN5dmGui20PlayNodeFlipbookAnimEPNS_5SceneEjyffPFvS1_jbPvS2_ES2_S2_
op:__ZN12dmGameObject23Script_GetWorldRotationEP9lua_State
SF:__ZN12dmGameSystem15SpineComp_GetGOEP9lua_State
nsa:__ZN12dmHttpClient16SetDefaultParamsEPNS_9NewParamsE
D1:__ZNK13b2PulleyJoint17GetReactionTorqueEf
Qra:__ZN11dmHttpCacheL15ContentFilePathEPNS_5CacheEyPci
lXa:_mbedtls_ssl_ciphersuite_uses_server_signature
OM:__ZN9dmPhysics11DebugDraw2D16DrawSolidPolygonEPK6b2Vec2iRK7b2Color
GY:__ZN15btGjkConvexCastC2EPK13btConvexShapeS2_P22btVoronoiSimplexSolver
uta:__ZN8dmMemory13AlignedMallocEPPvjj
FIa:__ZN7dmSound8FinalizeEv
As:__ZN10dmResource16LoadArchiveIndexEPKcPNS_16SResourceFactoryE
wC:__ZN12dmGameSystem16AcquireResourcesEPN10dmResource16SResourceFactoryEPKvjPN8dmRender13RenderContextEPNS_21RenderScriptPrototypeEPKc
rs:__GLOBAL__sub_I_ddf_math_cpp
l4a:_emscripten_glGetUniformLocation__wrapper
BUa:_ecp_mul_comb_core
ija:_luaL_unref
KPa:_mbedtls_x509_crt_free
Cza:_WebPYuv444ToRgba4444C
LS:__ZN31btDefaultCollisionConfigurationC2ERK34btDefaultCollisionConstructionInfo
_E:__ZN12dmGameSystem21ScriptPhysicsRegisterERKNS_16ScriptLibContextE
ya:invoke_vfi
wa:invoke_vff
HC:__ZN12dmGameSystem19ResRigSceneRecreateERKN10dmResource22ResourceRecreateParamsE
Zva:_longest_match
wva:__ZN6dmTime7GetTimeEv
sC:__ZN12dmGameSystemL25ReleasePrototypeResourcesEPN10dmResource16SResourceFactoryEPN10dmParticle9PrototypeE
_s:__ZN10dmResource3GetEPNS_16SResourceFactoryEPKcPPv
X0a:_freeaddrinfo
BM:__ZN9dmPhysics16NewContextParamsC2Ev
Vh:_glStencilOp
je:_emscripten_glGetShaderSource
CN:__ZN35btSequentialImpulseConstraintSolver29solveGroupCacheFriendlyFinishEPP17btCollisionObjectiPP20btPersistentManifoldiPP17btTypedConstraintiRK19btContactSolverInfoP12btIDebugDrawP12btStackAlloc
aWa:_sha1_process_wrap
Hfa:_lua_pushcclosure
uKa:_mbedtls_ctr_drbg_random_with_add
eRa:_mbedtls_mpi_sub_int
Ena:__ZN5dmHID16NewContextParamsC2Ev
ima:_math_rad
JH:__ZN10dmGraphics16NewVertexProgramEPNS_7ContextEPNS_10ShaderDesc6ShaderE
Lw:__ZN12dmGameSystem16CompGuiOnMessageERKN12dmGameObject24ComponentOnMessageParamsE
Nja:_luaK_exp2val
BDa:__ZN5dmGui24GetNodeSpinePlaybackRateEPNS_5SceneEj
aqa:__ZN5dmRig16SetEventCallbackEPNS_11RigInstanceEPFvNS_12RigEventTypeEPvS3_S3_ES3_S3_
Mha:_body
Yna:__ZN5dmHID13GetGamepadHatEPNS_13GamepadPacketEjRh
W8:__ZN8dmScript11Json_DecodeEP9lua_State
us:__ZN10dmResource25CheckSuppliedResourcePathEPKc
cha:_luaC_freeall
$ja:_luaX_token2str
dc:_dmSysOpenURL
dM:__ZN9dmPhysics13NewBoxShape3DEPNS_9Context3DERKN10Vectormath3Aos7Vector3E
_va:_deflate
xLa:_pk_get_pk_alg
yx:__ZN12dmGameSystemL24ResourceReloadedCallbackERKN10dmResource22ResourceReloadedParamsE
nk:FUNCTION_TABLE_vii
g3a:dynCall_vff
Hl:__ZN3Map9ResetPathEv
Tia:_luaL_checkany
xQ:__ZN18btDbvtTreeCollider7ProcessEPK10btDbvtNode
U7:__ZN8dmScript5PCallEP9lua_Stateii
fba:__ZN8dmScriptL8Quat_mulEP9lua_State
lb:___syscall10
Cpa:__ZN12dmObjectPoolIPN5dmRig11RigInstanceEE11SetCapacityEj
E2:__ZN15b2ContactSolverD2Ev
pl:_astar
vZ:__ZNK11b2GridShape7RayCastEP15b2RayCastOutputRK14b2RayCastInputRK11b2Transformi
hx:__ZN12dmGameSystem21CompLabelGetComponentERKN12dmGameObject18ComponentGetParamsE
Jv:__ZN12dmGameSystem14GetJointParamsEPvS0_yRN9dmPhysics9JointTypeERNS1_18ConnectJointParamsE
Fi:_glfwSetWindowFocusCallback
LM:__ZN6b2DrawD2Ev
MIa:__ZN7dmSound19DeleteSoundInstanceEPNS_13SoundInstanceE
Zb:_dmGetDeviceSampleRate
_Ta:_mbedtls_ecdsa_init
Di:_glfwSetTouchCallback
x6a:_emscripten_glVertexAttribI1i__wrapper
Z:invoke_fiifii
eja:_luaL_addlstring
POa:_ssl_update_checksum_md5sha1
HB:__ZN12dmGameSystem20ResRecreateSceneDescERKN10dmResource22ResourceRecreateParamsE
JG:__GLOBAL__sub_I_sound_ddf_cpp
Yqa:__ZN7dmCrypt7HashMd5EPKhjPh
vKa:_mbedtls_ctr_drbg_random
bV:__ZN15btCompoundShape16removeChildShapeEP16btCollisionShape
zT:__ZN20btAlignedObjectArrayIP20btPersistentManifoldE17quickSortInternalI33btPersistentManifoldSortPredicateEEvT_ii
kBa:__ZN11dmHashTableIyPN10dmParticle9PrototypeEE3PutEyRKS2_
aia:_luaS_newudata
Eza:_WebPInitYUV444Converters
h1a:___pthread_self_689
Ay:__ZN12dmGameSystem18RenderLineCallbackEPvRKN10Vectormath3Aos6Point3ES5_RKNS2_7Vector4E
hd:_emscripten_glDepthMask
qd:_emscripten_glDrawBuffers
E7:__ZN8dmScript15GetContextValueEPNS_7ContextE
rW:__ZN17btGjkPairDetectorC2EPK13btConvexShapeS2_P22btVoronoiSimplexSolverP30btConvexPenetrationDepthSolver
RAa:__ZN5dmGui11IsNodeValidEPNS_5SceneEj
D2:__ZN15b2ContactSolverC2EP18b2ContactSolverDef
$F:__ZN12dmGameSystem19SpriteComp_SetHFlipEP9lua_State
hY:__ZN24btConvexTriangleCallback22setTimeStepAndCountersEfRK16btDispatcherInfoP16btManifoldResult
g5a:_emscripten_glEnableClientState__wrapper
u1a:__Znam
d:HEAPU8
B1a:__ZN10__cxxabiv117__class_type_infoD0Ev
jwa:__tr_flush_block
fA:__ZN12dmGameSystem15GetTileGridTileEPKNS_17TileGridComponentEjii
gp:__ZN12dmGameObject15Script_GetScaleEP9lua_State
M2:__ZNK15b2DistanceJoint10GetAnchorAEv
jd:_emscripten_glDepthRangef
HTa:_ecdh_read_params_internal
qG:__ZN12dmGameSystemL10SetDimModeEP9lua_State
hDa:__ZN5dmGui20SetNodeSpineSkinSlotEPNS_5SceneEjyy
KAa:_WebPDequantizeLevels
q6a:_emscripten_glStencilMaskSeparate__wrapper
IR:__ZN16btCollisionWorldD0Ev
hc:_emscripten_glActiveTexture
O$:__ZN9b2Fixture17SynchronizeSingleEP12b2BroadPhaseiRK11b2TransformS4_
eUa:_mbedtls_ecp_group_init
uma:_os_execute
ip:__ZN12dmGameObject22Script_GetScaleUniformEP9lua_State
LW:__ZNK15btTriangleShape7getAabbERK11btTransformR9btVector3S4_
j2:__Z25b2CollidePolygonAndCircleP10b2ManifoldPK14b2PolygonShapeRK11b2TransformPK13b2CircleShapeS6_
Bo:__ZN12dmGameObject19NewPropertiesParamsC2Ev
Wc:_emscripten_glCopyTexSubImage2D
Pj:FUNCTION_TABLE_ii
wZ:__ZNK11b2GridShape11ComputeAABBEP6b2AABBRK11b2Transformi
DXa:_ssl_write_signature_algorithms_ext
UL:__ZN9dmPhysics11GetSocket3DEPNS_9Context3DE
O6:__ZN8dmRender7CommandC2ENS_11CommandTypeEmmmm
N7a:b44
S1a:__ZN10__cxxabiv112_GLOBAL__N_110construct_Ev
sSa:_des3_set3key_dec_wrap
Dn:__ZN12dmGameObject16GetWorldRotationEPNS_8InstanceE
P7a:b46
Mra:__ZN11dmHttpCache16SetDefaultParamsEPNS_9NewParamsE
gz:__ZN12dmGameSystemL13CreateGOBonesEPNS_15SpineModelWorldEPNS_19SpineModelComponentE
Ir:__ZN5dmDDF11InputBuffer9SubBufferEjPS0_
C7:__ZN8dmScript11GetUserDataEP9lua_StatePmj
Pja:_luaK_storevar
LMa:_mbedtls_sha512_clone
Qx:__ZN12dmGameSystemL27CompMeshGetConstantCallbackEPvyPPN8dmRender8ConstantE
me:_emscripten_glGetStringi
Uo:__ZN12dmGameObject30CreatePropertyContainerFromDDFEPKN15dmPropertiesDDF20PropertyDeclarationsE
h5:__ZNSt3__215__inplace_mergeIRN8dmRender21RenderListEntrySorterEPjEEvT0_S5_S5_T_NS_15iterator_traitsIS5_E15difference_typeES9_PNS8_10value_typeEl
Zra:__ZN11dmHashTableIyN11dmHttpCache5EntryEE5EraseEy
xL:__ZN9dmPhysics19GetLinearVelocity2DEPNS_9Context2DEPv
lV:__ZN21btConvexInternalShape9setMarginEf
qaa:__ZN8dmScriptL11Vector3_newEP9lua_State
a_a:_vsprintf
iH:__ZN10dmGraphics9GetHeightEPNS_7ContextE
yu:__ZN12dmGameSystem21CompCameraDeleteWorldERKN12dmGameObject26ComponentDeleteWorldParamsE
R2:__ZN15b2DistanceJointD0Ev
dea:_inet_open
VTa:_mbedtls_ecdsa_write_signature
jTa:_mbedtls_des3_set3key_dec
QDa:__ZN5dmGui14SetNodeYAnchorEPNS_5SceneEjNS_7YAnchorE
ZRa:_get_no_padding
RDa:__ZN5dmGui18SetNodeOuterBoundsEPNS_5SceneEjNS_9PieBoundsE
jUa:_mbedtls_ecp_copy
$ca:_meth_getsockname_7745
_Z:__ZN6b2DrawC2Ev
G2:__ZN15b2ContactSolver9WarmStartEv
iTa:_des3_set3key
pf:_emscripten_glTexParameterfv
eIa:__ZN12dmLiveUpdate13AsyncFinalizeEv
TF:__ZN12dmGameSystem17SpineComp_SetSkinEP9lua_State
rI:__ZN10dmGraphics10SetTextureEPNS_7TextureERKNS_13TextureParamsE
FRa:_mbedtls_mpi_gcd
Ot:__ZN10dmResourceL23PreloaderTryPruneParentEPNS_17ResourcePreloaderEPNS_14PreloadRequestE
J_:__ZN15b2RevoluteJoint4DumpEv
Wl:__ZN11micropather9PathCache3AddERKNS_8MPVectorIPvEERKNS1_IfEE
R5:__ZN8dmRender27RenderScript_SetStencilFuncEP9lua_State
EW:__ZN20btPersistentManifold16addManifoldPointERK15btManifoldPoint
OZ:__ZN15b2WorldManifold10InitializeEPK10b2ManifoldRK11b2TransformfS5_f
DH:__ZN10dmGraphics23DeleteVertexDeclarationEPNS_17VertexDeclarationE
_Xa:_mbedtls_x509_time_is_past
DW:__ZNK20btPersistentManifold27getContactBreakingThresholdEv
YH:__ZN10dmGraphics10SetSamplerEPNS_7ContextEii
ona:_loader_Croot
Oga:_f_parser
pBa:__ZN5dmGui11DeleteSceneEPNS_5SceneE
yqa:__ZN8dmBuffer13GetStreamNameEjjPy
OS:__ZN31btConvexPlaneCollisionAlgorithm10CreateFunc24CreateCollisionAlgorithmER36btCollisionAlgorithmConstructionInfoP17btCollisionObjectS4_
ua:invoke_vdddddd
qg:_emscripten_glVertexAttribI4bv
Kga:_resume
Vi:_llvm_log10_f64
BXa:_ssl_write_hostname_ext
df:_emscripten_glStencilFuncSeparate
Faa:__ZN8dmScriptL17Matrix4_AxisAngleEP9lua_State
pZa:___intscan
jHa:__ZN7dmCrash7ReleaseEi
tf:_emscripten_glTexStorage3D
OVa:_mbedtls_md_get_type
zu:__ZN12dmGameSystem16CompCameraCreateERKN12dmGameObject21ComponentCreateParamsE
d5a:_emscripten_glUseProgram__wrapper
Hv:__ZN12dmGameSystem11CreateJointEPvS0_yRKN10Vectormath3Aos6Point3ES0_S5_N9dmPhysics9JointTypeERKNS6_18ConnectJointParamsE
K5a:_emscripten_glUniform4f__wrapper
x:tempRet0
Dx:__ZN12dmGameSystem15CompMeshDestroyERKN12dmGameObject22ComponentDestroyParamsE
SC:__ZN12dmGameSystem19ResSoundDataDestroyERKN10dmResource21ResourceDestroyParamsE
kI:__ZN10dmGraphics18DeleteRenderTargetEPNS_12RenderTargetE
Pa:invoke_viiiifffffif
fw:__ZN12dmGameSystem20CompFactoryOnMessageERKN12dmGameObject24ComponentOnMessageParamsE
Bta:__ZN11dmHashTableIyN9dmMessage13MessageSocketEE3PutEyRKS1_
oEa:__ZN5dmGui12DeleteScriptEPNS_6ScriptE
TS:__ZN32btSphereSphereCollisionAlgorithm10CreateFuncD0Ev
rC:__ZN12dmGameSystem19ResParticleFXCreateERKN10dmResource20ResourceCreateParamsE
IA:__ZN12dmGameSystem17ResBufferRecreateERKN10dmResource22ResourceRecreateParamsE
rWa:_sha384_clone_wrap
VH:__ZN10dmGraphics18GetUniformLocationEmPKc
GL:__ZN9dmPhysics9RayCast2DEPNS_7World2DERKNS_14RayCastRequestERNS_15RayCastResponseE
A$:__ZN12b2BroadPhase11UpdatePairsI16b2ContactManagerEEvPT_
vda:_socket_send
V1a:__ZSt11__terminatePFvvE
L6:__ZN8dmRender7CommandC2ENS_11CommandTypeEm
Jza:_YuvToRgbaRow
fHa:__ZN7dmCrash11SetFilePathEPKc
rK:__ZN10dmGraphicsL20OpenGLDisableTextureEPNS_7ContextEjPNS_7TextureE
WJ:__ZN10dmGraphicsL20OpenGLSetStencilMaskEPNS_7ContextEj
iFa:__ZN5dmGuiL13LuaNewPieNodeEP9lua_State
KI:__ZN10dmGraphicsL16OpenGLInitializeEv
bZ:__ZN13b2CircleShapeD0Ev
s0:__ZN13b2DynamicTree11CreateProxyERK6b2AABBPv
Gea:_opt_get_ip6_unicast_hops
Xy:__ZN12dmObjectPoolIN12dmGameSystem14SoundComponentEE4FreeEjb
RO:__ZN11btRigidBody24checkCollideWithOverrideEP17btCollisionObject
DJa:_codebook_decode_start
Ag:_emscripten_glVertexPointer
Rl:__ZN11micropather12PathNodePool11GetPathNodeEjPvffPNS_8PathNodeE
om:__ZN12dmGameObject11PropertyVarC2Ey
Mh:_glLinkProgram
T1a:__ZN10__cxxabiv112_GLOBAL__N_19destruct_EPv
sM:__ZN9dmPhysics18SetLinearDamping3DEPvf
lBa:__ZN11dmHashTableIyPvE3PutEyRKS0_
zTa:_ecdh_compute_shared_restartable
iB:__ZN12dmGameSystem17ResFactoryPreloadERKN10dmResource21ResourcePreloadParamsE
tra:_dmHashBuffer32
Sz:__ZN12dmGameSystem21CompSpriteAddToUpdateERKN12dmGameObject26ComponentAddToUpdateParamsE
rEa:__ZN5dmGui18GetContextTableRefEPNS_5SceneE
z3a:dynCall_viiiifffffif
HA:__ZN12dmGameSystem16ResBufferDestroyERKN10dmResource21ResourceDestroyParamsE
vpa:__ZN10dmParticle17SetRenderConstantEPNS_7ContextEjyyN10Vectormath3Aos7Vector4E
ee:_emscripten_glGetProgramInfoLog
rea:_inet_trybind
Mv:__ZN12dmGameSystem21GetJointReactionForceEPvS0_yRN10Vectormath3Aos7Vector3E
b$:__ZNK11b2RopeJoint17GetReactionTorqueEf
tk:FUNCTION_TABLE_viii
Al:__ZL12astar_setmapP9lua_State
kj:_pthread_mutex_init
pk:FUNCTION_TABLE_viif
ok:FUNCTION_TABLE_viid
Op:__ZN12dmGameObjectL13ScriptIsValidEP9lua_State
zNa:_mbedtls_ssl_write_version
lMa:_mbedtls_rsa_rsassa_pss_verify
vk:FUNCTION_TABLE_viiifii
Zc:_emscripten_glCullFace
Tv:__ZN12dmGameSystem17SetCollisionFlipVEPvb
NU:__ZNK16btCollisionShape27getContactBreakingThresholdEf
zl:__ZL14astar_setcostsP9lua_State
Gsa:__ZN19dmHttpClientPrivate11ParseHeaderEPcPvbPFvS1_iiiPKcEPFvS1_S3_S3_EPFvS1_iE
iHa:__ZN7dmCrash12LoadPreviousEv
VVa:_md5_process_wrap
ZL:__ZNK11btMatrix3x311getRotationER12btQuaternion
Z$:__ZN7b2World8SolveTOIERK10b2TimeStep
JXa:_ssl_write_extended_ms_ext
uK:__ZN10dmGraphicsL16OpenGLReadPixelsEPNS_7ContextEPvj
pRa:_mbedtls_mpi_cmp_mpi
X1:__ZNK12b2WheelJoint10GetAnchorBEv
mG:__ZN12dmGameSystemL17TileMap_GetBoundsEP9lua_State
cF:__ZN12dmGameSystemL26Physics_SetJointPropertiesEP9lua_State
e7:__ZN11dmHashTableImbE3PutEmRKb
p_:__ZN16b2PrismaticJointD0Ev
iWa:_sha224_process_wrap
Axa:_ReadSymbol
eha:_luaC_step
xQa:_mbedtls_aes_setkey_dec
fRa:_mbedtls_mpi_sub_mpi
Wta:__ZN15dmPoolAllocator3NewEj
G6:__ZN8dmRender28OnReloadRenderScriptInstanceEPNS_20RenderScriptInstanceE
eaa:__ZN8dmScriptL10TimerDelayEP9lua_State
iw:__ZN12dmGameSystem17CompFactoryUnloadEPN12dmGameObject16CollectionHandleEPNS_16FactoryComponentE
qU:__ZNK10btBoxShape16getPlaneEquationER9btVector4i
J5:__ZN8dmRender24RenderScript_DrawDebug2dEP9lua_State
JC:__ZN12dmGameSystem17ResSkeletonCreateERKN10dmResource20ResourceCreateParamsE
Ac:_emscripten_glBlitFramebuffer
ula:_io_lines
D:Math_sin
yw:__ZN12dmGameSystem15RenderTextNodesEPN5dmGui5SceneEPKNS0_11RenderEntryEPKN10Vectormath3Aos7Matrix4EPKfPPKNS0_12StencilScopeEjPv
d2a:___cxa_guard_release
Jn:__ZN12dmGameObject6DeleteEPNS_16CollectionHandleEPNS_8InstanceEb
rha:_luaM_toobig
Eka:_luaB_getfenv
ULa:_mbedtls_rsa_private
sO:__ZN23btDiscreteDynamicsWorld15removeCharacterEP17btActionInterface
Dm:__ZN12dmGameObject16DeleteCollectionEPNS_10CollectionE
Uv:__ZN12dmGameSystem19CompEmitterNewWorldERKN12dmGameObject23ComponentNewWorldParamsE
Nza:_YuvToRgba4444Row
iP:__ZN11btRigidBody19integrateVelocitiesEf
rS:__ZZN16btCollisionWorld17objectQuerySingleEPK13btConvexShapeRK11btTransformS5_P17btCollisionObjectPK16btCollisionShapeS5_RNS_20ConvexResultCallbackEfEN14LocalInfoAdderD0Ev
vSa:_des3_set2key_enc_wrap
EKa:_mbedtls_md5_free
I8:_dmScript_Html5ReportOperationSuccess
Ad:_emscripten_glFinish
V:abortOnCannotGrowMemory
gr:__ZN5dmDDF15ResolvePointersEPKNS_10DescriptorEPv
m7:__ZN8dmScript11GetLuaStateEPNS_7ContextE
Rg:_glBindFramebuffer
NI:__ZN10dmGraphicsL26OpenGLGetWindowRefreshRateEPNS_7ContextE
m$a:___randname
qOa:_mbedtls_ssl_transform_free
Cy:__ZN12dmGameSystem23CompParticleFXOnMessageERKN12dmGameObject24ComponentOnMessageParamsE
MZ:__ZN14b2PolygonShape8SetAsBoxEff
_9:__ZN8dmScript22TimerDeleteScriptWorldEPNS_11ScriptWorldE
eWa:_sha224_wrap
r4:__ZN8dmRender18GetMaterialTagMaskEPNS_8MaterialE
yD:__ZN12dmGameSystem23ResVertexProgramDestroyERKN10dmResource21ResourceDestroyParamsE
Wla:_math_cosh
H1:__ZN13b2PulleyJoint24SolveVelocityConstraintsERK12b2SolverData
oga:_lua_getlocal
b7a:_emscripten_glGetVertexAttribfv__wrapper
K7a:_emscripten_glClearBufferiv__wrapper
$:invoke_fiiifii
BHa:__ZN7dmCrashL18Crash_GetBacktraceEP9lua_State
nx:__ZN12dmGameSystemL28CompLabelSetConstantCallbackEPvyPjRKN12dmGameObject11PropertyVarE
xP:__ZN20btAxisSweep3InternalItE8aabbTestERK9btVector3S3_R24btBroadphaseAabbCallback
dka:_luaX_setinput
D4a:_emscripten_glReleaseShaderCompiler__wrapper
tma:_os_difftime
aE:__ZN12dmGameSystemL12Stream_indexEP9lua_State
Hz:__ZN12dmGameSystem25CompSpineModelSetSkinSlotEPNS_19SpineModelComponentEyy
Esa:__ZN12dmHttpClient22ShutdownConnectionPoolEv
eqa:__ZN12dmObjectPoolIPN5dmRig11RigInstanceEE5AllocEv
vX:__ZN6btDbvt6insertERK12btDbvtAabbMmPv
zb:___syscall39
yb:___syscall38
y2a:_testSetjmp
D5:__ZN8dmRender27RenderScript_DisableTextureEP9lua_State
fAa:_VP8LBuildHuffmanTable
CPa:_mbedtls_ssl_md_alg_from_hash
bQa:_x509_crt_verify_name
Tn:__ZN12dmGameObject7SetBoneEPNS_8InstanceEb
bua:__ZN9dmProfile10InitializeEjjj
Vb:_difftime
lf:_emscripten_glTexImage3D
QCa:__ZN5dmGui14GetNodeTextureEPNS_5SceneEjPNS_15NodeTextureTypeE
Uua:__ZN12dmStringPool3AddEPNS_4PoolEPKcjj
VG:__ZN10dmGraphics10NewContextERKNS_13ContextParamsE
$6:__ZN8dmScriptL15Lua_Math_RandomEP9lua_State
PXa:_mbedtls_x509_get_rsassa_pss_params
v7a:_emscripten_glUniformBlockBinding__wrapper
dha:_sweeplist
gs:__ZN5dmDDF11LoadContext13GetArrayCountEjj
bI:__ZN10dmGraphics12SetColorMaskEPNS_7ContextEbbbb
tc:_emscripten_glBindTexture
Fm:__ZN12dmGameObject16DetachCollectionEPNS_10CollectionE
XJ:__ZN10dmGraphicsL20OpenGLSetStencilFuncEPNS_7ContextENS_11CompareFuncEjj
FAa:_VerticalFilter
Lma:_sort
jWa:_sha256_starts_wrap
N1a:__ZN10__cxxabiv120__si_class_type_infoD0Ev
N9:__ZN8dmScript12DoCheckTableEP9lua_StateRKNS_11TableHeaderEPKcPcji
HU:__ZNK14btCapsuleShape49batchedUnitVectorGetSupportingVertexWithoutMarginEPK9btVector3PS0_i
BE:__GLOBAL__sub_I_script_label_cpp
SU:__ZN15btCompoundShapeD2Ev
z$:__ZN16b2ContactManager15FindNewContactsEv
W6:__ZN8dmScript13DeleteContextEPNS_7ContextE
ONa:_ssl_buffering_free_slot
ul:__ZL15astar_solvenearP9lua_State
y5:__ZN8dmRender28RenderScript_SetRenderTargetEP9lua_State
Do:__ZN12dmGameObject16DeletePropertiesEPNS_10PropertiesE
bCa:__ZN5dmGui9RunScriptEPNS_5SceneENS_14ScriptFunctionEiPv
nia:_luaH_setstr
doa:__ZN5dmHID20GetGamepadDeviceNameEPNS_7GamepadEPPKc
mV:__ZNK17btConvexHullShape28calculateSerializeBufferSizeEv
oea:_inet_trydisconnect
bOa:_mbedtls_ssl_dtls_replay_update
l6:__ZN8dmRenderL38RenderScriptGetInstanceContextTableRefEP9lua_State
x7:__ZN8dmScript11GetUserTypeEP9lua_Statei
mm:__ZN12dmGameObject11PropertyVarC2Ev
rca:_meth_close
zp:__ZN12dmGameObjectL13DeleteGOTableEP9lua_Stateb
wea:_opt_set_reuseaddr
az:__ZN12dmGameSystem20CompSoundSetPropertyERKN12dmGameObject26ComponentSetPropertyParamsE
OG:__GLOBAL__sub_I_gamesys_private_cpp
MAa:_glfwInit
nm:__ZN12dmGameObject11PropertyVarC2Ef
g2a:___cxa_can_catch
Nfa:_lua_rawget
$e:_emscripten_glScissor
Vy:__ZN12dmObjectPoolIN12dmGameSystem14SoundComponentEE5AllocEv
AK:__ZN10dmGraphicsL33OpenGLSetDepthStencilRenderBufferEPNS_12RenderTargetEb
oMa:_mbedtls_rsa_deduce_primes
$m:__ZNSt3__27__sort5IRN12dmGameObject21ComponentTypeSortPredEPtEEjT0_S5_S5_S5_S5_T_
qn:__ZN12dmGameObject9SetParentEPNS_8InstanceES1_
mP:__ZNK21btConeTwistConstraint16GetPointForAngleEff
bJ:__ZN10dmGraphicsL11OpenGLClearEPNS_7ContextEjhhhhfj
pW:__ZN17btGjkPairDetector16getClosestPointsERKN36btDiscreteCollisionDetectorInterface17ClosestPointInputERNS0_6ResultEP12btIDebugDrawb
TSa:_aes_crypt_cbc_wrap
wf:_emscripten_glTransformFeedbackVaryings
aGa:__ZN5dmGuiL12LuaMoveAboveEP9lua_State
e8a:_emscripten_glVertexPointer__wrapper
Jd:_emscripten_glGenTextures
KV:__ZNK13btConvexShape19getMarginNonVirtualEv
LTa:_mbedtls_ecdh_make_public
hua:__ZN9dmProfile7ReleaseEPNS_7ProfileE
E4a:_emscripten_glFinish__wrapper
$Ra:_mbedtls_cipher_set_iv
el:__ZN8dmEngineL9IsRunningEPv
gma:_math_modf
lFa:__ZN5dmGuiL10LuaSetTextEP9lua_State
_q:__ZN5dmDDF16RegisterAllTypesEv
uBa:__ZN5dmGui13GetNodeHandleEPNS_12InternalNodeE
k1:__ZN16b2PolygonContact7DestroyEP9b2ContactP16b2BlockAllocator
cy:__ZN12dmObjectPoolIPN12dmGameSystem14ModelComponentEE5AllocEv
PV:__ZN34btPolyhedralConvexAabbCachingShapeD0Ev
_3:__ZN11dmHashTableIyiE3PutEyRKi
g_:__Z7b2Alloci
Hga:_luaD_poscall
lla:_hookf
jza:_WebPRescalerImportRowShrinkC
VM:__ZN9dmPhysics11DebugDraw3DD2Ev
GC:__ZN12dmGameSystem18ResRigSceneDestroyERKN10dmResource21ResourceDestroyParamsE
EB:__ZN12dmGameSystem19ResPreloadSceneDescERKN10dmResource21ResourcePreloadParamsE
l:STACK_MAX
QG:__ZN12dmGameSystem19GetMaterialConstantEPN8dmRender8MaterialEyRN12dmGameObject12PropertyDescEbPFbPvyPPNS0_8ConstantEES6_
Hc:_emscripten_glClearBufferfv
aw:__ZN12dmGameSystem17CompFactoryCreateERKN12dmGameObject21ComponentCreateParamsE
lE:__ZN12dmGameSystem28CollectionFactoryComp_CreateEP9lua_State
Rp:__ZN12dmGameObjectL10LoadScriptEP9lua_StatePN8dmLuaDDF9LuaSourceEPNS_6ScriptE
pw:__ZN12dmGameSystem22OnWindowResizeCallbackEPN5dmGui5SceneEjj
qea:_inet_tryaccept
Gc:_emscripten_glClearBufferfi
Y4:__ZN8dmRender26ApplyRenderObjectConstantsEPNS_13RenderContextEPNS_8MaterialEPKNS_12RenderObjectE
iW:__ZN16btPointCollector15addContactPointERK9btVector3S2_f
eB:__ZN12dmGameSystem26ResDisplayProfilesRecreateERKN10dmResource22ResourceRecreateParamsE
csa:__ZN11dmHttpCache7ReleaseEPNS_5CacheEPKcS3_P8_IO_FILE
xca:_meth_getfd
Jra:_dmHashReverseErase64
kma:_math_randomseed
f2:__ZN8b2IslandD2Ev
yia:_luaV_settable
REa:__ZN5dmGui10LuaSetSizeEP9lua_State
nHa:__ZN7dmCrash11GetSysFieldEiNS_8SysFieldE
ZC:__ZN12dmGameSystem16ResSpritePreloadERKN10dmResource21ResourcePreloadParamsE
Cua:__ZN8dmSocket7ConnectEiNS_7AddressEi
Tna:__ZN5dmHID20GetTouchDevicePacketEPNS_7ContextEPNS_17TouchDevicePacketE
m0a:_cosh
yUa:_ecp_precompute_comb
xB:__ZN12dmGameSystem21ResGamepadMapRecreateERKN10dmResource22ResourceRecreateParamsE
Dk:FUNCTION_TABLE_viiiiiii
sea:_io_init
wy:__ZN12dmGameSystem25CompParticleFXAddToUpdateERKN12dmGameObject26ComponentAddToUpdateParamsE
gYa:_mbedtls_camellia_init
oGa:__ZN5dmGuiL17LuaSetInnerRadiusEP9lua_State
Ds:__ZN10dmResource11HashCompareEPKhjS1_j
nq:__ZN12dmGameObject20ResPrototypeRecreateERKN10dmResource22ResourceRecreateParamsE
M0:__ZN9b2ContactD2Ev
Yg:_glClear
ota:__ZL11dmLogThreadPv
VQ:__ZN28btHashedOverlappingPairCache26processAllOverlappingPairsEP17btOverlapCallbackP12btDispatcher
AC:__ZN12dmGameSystem21ResRenderScriptCreateERKN10dmResource20ResourceCreateParamsE
Ey:__ZN12dmGameSystem19CompRenderConstantsC2Ev
uca:_meth_connect
BI:__ZN10dmGraphics17GetMaxTextureSizeEPNS_7ContextE
Wna:__ZN5dmHID14GetMouseButtonEPNS_11MousePacketENS_11MouseButtonE
ZQ:__ZN28btHashedOverlappingPairCache20sortOverlappingPairsEP12btDispatcher
Hra:_dmHashReverse32
pj:_pthread_setspecific
Bsa:__ZN12dmHttpClientL18HttpContentConsumeEPNS_8ResponseEPviPKvj
FC:__ZN12dmGameSystem17ResRigSceneCreateERKN10dmResource20ResourceCreateParamsE
nYa:_mbedtls_camellia_crypt_cfb128
sla:_io_flush
Nm:__ZN12dmGameObjectL6UnlinkEPNS_10CollectionEPNS_8InstanceE
T5:__ZN8dmRender24RenderScript_SetCullFaceEP9lua_State
Cta:__ZN9dmMessage12DeleteSocketEy
c9:__ZN8dmScript12ModuleLoadedEPNS_7ContextEy
ZNa:_ssl_get_hs_frag_len
Rha:_constructor
AZ:__ZNK11b2GridShape22GetPolygonShapeForCellEjR14b2PolygonShape
rCa:__ZN5dmGui11GetNodeByIdEPNS_5SceneEPKc
Pfa:_lua_createtable
MYa:_chachapoly_pad_ciphertext
fga:_lua_concat
hI:__ZN10dmGraphics11SetCullFaceEPNS_7ContextENS_8FaceTypeE
Z4a:_emscripten_glSampleCoverage__wrapper
eW:__ZN27btContinuousConvexCollision16calcTimeOfImpactERK11btTransformS2_S2_S2_RN12btConvexCast10CastResultE
UGa:__ZN5dmGuiL23GuiScriptInstance_indexEP9lua_State
Kha:_singlevaraux
x1:__ZN12b2MouseJoint24SolveVelocityConstraintsERK12b2SolverData
gua:__ZN11dmHashTableIjhE3PutEjRKh
f8a:_emscripten_glTexCoordPointer__wrapper
Rx:__ZN12dmGameSystem19CompMeshSetPropertyERKN12dmGameObject26ComponentSetPropertyParamsE
SHa:__ZN12dmLiveUpdateL36VerifyManifestSupportedEngineVersionEPN10dmResource8ManifestE
j9a:b58
mJa:_stb_vorbis_close
T8a:b52
U8a:b53
O8a:b50
SA:__ZN12dmGameSystem24ResCollectionProxyCreateERKN10dmResource20ResourceCreateParamsE
c9a:b56
iMa:_mbedtls_safer_memcmp
Z8a:b54
b9a:b55
yua:__ZN8dmSocket6DeleteEi
Kz:__ZN12dmObjectPoolIN12dmGameSystem15SpriteComponentEE11SetCapacityEj
KIa:__ZN7dmSound20GetSoundResourceSizeEPNS_9SoundDataE
CCa:__ZN5dmGui15HasPropertyHashEPNS_5SceneEjy
CMa:_mbedtls_sha256_free
mna:_loader_Lua
rc:_emscripten_glBindProgramARB
Uk:__ZN8dmEngine6EngineC2EPN15dmEngineService13EngineServiceE
DVa:_mbedtls_md_setup
jD:__ZN12dmGameSystem18ResTextureRecreateERKN10dmResource22ResourceRecreateParamsE
$T:__ZNK10btBoxShape7getNameEv
Ef:_emscripten_glUniform2i
vp:__ZN12dmGameObjectL19LuaAnimationStoppedEPNS_8InstanceEyybPvS2_
hT:__ZN16btEmptyAlgorithm22getAllContactManifoldsER20btAlignedObjectArrayIP20btPersistentManifoldE
Zda:_except_open
MX:__ZN26btBoxBoxCollisionAlgorithmC2EP20btPersistentManifoldRK36btCollisionAlgorithmConstructionInfoP17btCollisionObjectS6_
l0a:___DOUBLE_BITS_357
xX:__ZN6btDbvt6updateEP10btDbvtNodeR12btDbvtAabbMmRK9btVector3f
Sca:_udp_open
nn:__ZN12dmGameObject19SpawnFromCollectionEPNS_16CollectionHandleEPvP11dmHashTableIyNS_22InstancePropertyBufferEERKN10Vectormath3Aos6Point3ERKNS8_4QuatERKNS8_7Vector3EPS3_IyyE
I_a:_strtod
KJa:_convert_channels_short_interleaved
YPa:_mbedtls_x509_crt_verify_info
vZa:_strtol
aZa:_realloc
gu:__ZN16dmBlockAllocator4FreeEPNS_7ContextEPvj
Xua:__ZN5dmSys5MkdirEPKcj
y7:__ZN8dmScript10ToUserTypeEP9lua_Stateij
kka:_luaX_lookahead
CA:__ZN12dmGameSystem22ResAnimationSetDestroyERKN10dmResource21ResourceDestroyParamsE
H_a:_strtox
WKa:_mbedtls_pk_get_bitlen
h$:__ZN11b2RopeJointC2EPK14b2RopeJointDef
xA:__ZN12dmGameSystemL31CompTileGridGetConstantCallbackEPvyPPN8dmRender8ConstantE
GB:__ZN12dmGameSystem19ResDestroySceneDescERKN10dmResource21ResourceDestroyParamsE
CRa:_mpi_montg_init
SY:__ZL14btAllocDefaultm
hqa:__ZN5dmRig14CreateBindPoseERN8dmRigDDF8SkeletonER7dmArrayINS_7RigBoneEE
X4:__ZN8dmRender18ClearRenderObjectsEPNS_13RenderContextE
AF:__ZN12dmGameSystemL20Sound_IsMusicPlayingEP9lua_State
wMa:_mbedtls_sha1_starts_ret
EO:__ZN20btAlignedObjectArrayIP17btTypedConstraintE17quickSortInternalI33btSortConstraintOnIslandPredicateEEvT_ii
OX:__ZN16btBoxBoxDetector16getClosestPointsERKN36btDiscreteCollisionDetectorInterface17ClosestPointInputERNS0_6ResultEP12btIDebugDrawb
cna:_str_find_aux
WZ:__ZN16b2BlockAllocatorC2Ev
HGa:__ZN5dmGuiL27EmitterStateChangedCallbackEjyN10dmParticle12EmitterStateEPv
Pba:__ZN8dmScript12Zlib_InflateEP9lua_State
$da:_global_protect
wl:__ZL11astar_resetP9lua_State
ng:_emscripten_glVertexAttribI3iv
I$a:___overflow
B2a:_memset
xe:_emscripten_glGetUniformuiv
eta:__ZN7dmImage4FreeEPNS_5ImageE
E6a:_emscripten_glVertexAttribI2uiv__wrapper
oQ:__ZNK16btDbvtBroadphase17getBroadphaseAabbER9btVector3S1_
oAa:_WebPSafeMalloc
CD:__ZN12dmGameSystem14GetStreamValueIiEEdPvi
UP:__ZNK15btNullPairCache26getOverlappingPairArrayPtrEv
Ofa:_lua_rawgeti
GFa:__ZN5dmGuiL11LuaGetLayerEP9lua_State
xka:_luaB_auxwrap
Hea:_opt_set_ip_multicast_loop
RXa:_mbedtls_x509_get_name
z7:__ZN8dmScript13CheckUserTypeEP9lua_StateijPKc
hpa:__ZN10dmParticle11DebugRenderEPNS_7ContextEPvPFvS2_RKN10Vectormath3Aos6Point3ES7_RKNS4_7Vector4EE
XN:__ZN23btDiscreteDynamicsWorld18addCollisionObjectEP17btCollisionObjectss
Hd:_emscripten_glGenFramebuffers
rqa:__ZN8dmBuffer13IsBufferValidEj
cHa:__ZN5dmGui15GetSceneFromLuaEP9lua_State
j$:__ZN6b2BodyC2EPK9b2BodyDefP7b2World
NP:__ZN20btAxisSweep3InternalItED0Ev
vfa:_lua_objlen
rn:__ZN12dmGameObjectL12InitInstanceEPNS_10CollectionEPNS_8InstanceE
Ya:invoke_viiiiiiiii
eOa:_ssl_record_is_in_progress
eBa:__ZN11dmHashTableIyN5dmGui11TextureInfoEE11SetCapacityEjj
Py:__ZN12dmGameSystem25AreRenderConstantsUpdatedEPNS_19CompRenderConstantsE
S7:__ZN8dmScript15UnrefInInstanceEP9lua_Statei
eK:__ZN10dmGraphicsL25OpenGLSetRenderTargetSizeEPNS_12RenderTargetEjj
A6a:_emscripten_glVertexAttribI2iv__wrapper
gR:__ZN21btCollisionDispatcherD2Ev
Aqa:__ZN8dmBuffer8GetCountEjPj
cj:_pthread_attr_setstacksize
fCa:__ZN5dmGuiL18RemoveFromNodeListEPNS_5SceneEPNS_12InternalNodeE
Db:___syscall54
c$:__ZN11b2RopeJoint4DumpEv
HN:__ZN35btSequentialImpulseConstraintSolver33resolveSingleConstraintRowGenericER11btRigidBodyS1_RK18btSolverConstraint
oJ:__ZN10dmGraphics21OpenGLSetStreamOffsetEPNS_17VertexDeclarationEjt
Wqa:__ZN7dmCrypt10HashSha256EPKhjPh
Qf:_emscripten_glUniform4ui
s5:__ZN8dmRender27RenderScript_ConstantBufferEP9lua_State
I3a:dynCall_viiiiiiiii
Mya:_VP8LInverseTransform
H3a:dynCall_viiiiiiiif
jOa:_ssl_buffer_message
zWa:_mbedtls_oid_get_pk_alg
RE:__ZN12dmGameSystemL33EmitterStateChangedCallbackArgsCBEP9lua_StatePv
f6a:_emscripten_glDetachShader__wrapper
pa:invoke_iiiiiiiiii
n_a:_memchr
_M:__ZN12btIDebugDraw12drawTriangleERK9btVector3S2_S2_S2_S2_S2_S2_f
x5:__ZN8dmRender31RenderScript_DeleteRenderTargetEP9lua_State
N6:__ZN8dmRender7CommandC2ENS_11CommandTypeEmmm
F3:__ZN11dmHashTableIjN8dmRender5GlyphEE11SetCapacityEjj
uP:__ZN20btAxisSweep3InternalItE7setAabbEP17btBroadphaseProxyRK9btVector3S5_P12btDispatcher
nLa:_eckey_alloc_wrap
mwa:_send_tree
Tr:__ZN5dmDDF7Message9ReadFieldEPNS_11LoadContextENS_8WireTypeEPKNS_15FieldDescriptorEPNS_11InputBufferE
Oua:__ZN8dmSocket10SetNoDelayEib
Wq:__ZN12dmGameObject23CompScriptSetPropertiesERKNS_28ComponentSetPropertiesParamsE
IYa:_mbedtls_chachapoly_update_aad
Yha:_lua_close
JZ:__ZNK14b2PolygonShape7RayCastEP15b2RayCastOutputRK14b2RayCastInputRK11b2Transformi
d5:__ZNSt3__218__stable_sort_moveIRN8dmRender16RenderListSorterEPjEEvT0_S5_T_NS_15iterator_traitsIS5_E15difference_typeEPNS8_10value_typeE
GDa:__ZN5dmGui18StopNodeParticlefxEPNS_5SceneEj
Aba:__ZN8dmScriptL14Vector3_concatEP9lua_State
Hha:_new_localvar
EFa:__ZN5dmGuiL10LuaGetFontEP9lua_State
BEa:__ZN5dmGui10LuaAnimateEP9lua_State
qCa:__ZN5dmGui9SetNodeIdEPNS_5SceneEjPKc
owa:_zcfree
jp:__ZN12dmGameObject18Script_SetPositionEP9lua_State
sta:__Z12dmSetLogFilePKc
fNa:_ssl_calc_finished_tls_sha256
q$:__ZNK6b2Body13ShouldCollideEPKS_
GSa:_gcm_camellia_setkey_wrap
cBa:__ZN5dmGui24SetDefaultNewSceneParamsEPNS_14NewSceneParamsE
F8a:_emscripten_glGetActiveUniformsiv__wrapper
yVa:_mbedtls_hmac_drbg_random
gZ:__ZNK13b2CircleShape11ComputeAABBEP6b2AABBRK11b2Transformi
Ss:__ZN10dmResource13UpdateFactoryEPNS_16SResourceFactoryE
Mta:__ZN9dmMessage7ConsumeEy
wG:__ZN12dmGameSystem27ScriptWindowOnWindowIconifyEb
hKa:__ZN12dmSoundCodec6DecodeEPNS_12CodecContextEPNS_7DecoderEPcjPj
nKa:_mbedtls_ctr_drbg_init
Yn:__ZN12dmGameObjectL11DeleteBonesEPNS_10CollectionEt
cL:__ZN9dmPhysics7FlipH2DEPv
JHa:__ZN7dmCrash9WriteDumpEv
kSa:_chachapoly_ctx_free
Rv:__ZN12dmGameSystem13IsCollision2DEPv
PF:__ZN12dmGameSystem14SpineComp_PlayEP9lua_State
ml:__ZN10dmProfiler18SetUpdateFrequencyEj
k6:__ZN8dmRenderL27RenderScriptInstanceIsValidEP9lua_State
a1a:_stat
GX:__ZN30btActivatingCollisionAlgorithmC2ERK36btCollisionAlgorithmConstructionInfoP17btCollisionObjectS4_
Y:invoke_fif
Iza:_YuvToRgbRow
sPa:_ssl_check_ctr_renegotiate
S2:__ZN15b2DistanceJoint23InitVelocityConstraintsERK12b2SolverData
fDa:__ZN5dmGui18GetNodeRigInstanceEPNS_5SceneEj
qa:invoke_iiiiiiiiiiii
Yy:__ZN12dmGameSystem20CompSoundAddToUpdateERKN12dmGameObject26ComponentAddToUpdateParamsE
Q7a:___assert_fail__wrapper
LHa:__ZN7dmCrash13PlatformPurgeEv
c1:__ZN23b2GridAndPolygonContact7DestroyEP9b2ContactP16b2BlockAllocator
RQ:__ZN28btHashedOverlappingPairCache20cleanOverlappingPairER16btBroadphasePairP12btDispatcher
kLa:_eckey_verify_wrap
lZ:__ZNK11b2EdgeShape9TestPointERK11b2TransformRK6b2Vec2
ha:invoke_iii
Gra:_dmHashRelease64
Eh:_glGetError
SDa:__ZN5dmGui24SetNodePerimeterVerticesEPNS_5SceneEjj
BQ:__ZN6btDbvt9collideTVEPK10btDbvtNodeRK12btDbvtAabbMmRNS_8ICollideE
hZa:___stdio_seek
V8:__ZN8dmScriptL17JsonToLuaInternalEP9lua_StatePN6dmJson8DocumentEiPcm
bma:_math_ldexp
dLa:_rsa_encrypt_wrap
Gca:_meth_setfd
e6:__ZN8dmRenderL35RenderScriptConstantBuffer_newindexEP9lua_State
wz:__ZN12dmGameSystemL33CompSpineModelSetConstantCallbackEPvyPjRKN12dmGameObject11PropertyVarE
c5:__ZN8dmRender4DrawEPNS_13RenderContextEPNS_9PredicateEPNS_19NamedConstantBufferE
pGa:__ZN5dmGuiL17LuaGetInnerRadiusEP9lua_State
LK:__ZN10dmGraphics18JobQueueInitializeEv
Qb:__read_sockaddr
Tya:_VP8LDspInit
mA:__ZN12dmGameSystemL13UpdateRegionsEPNS_17TileGridComponentE
p$:__ZN6b2Body13PurgeContactsEP9b2Fixture
Cc:_emscripten_glBufferSubData
hP:__ZN11btRigidBody24setCenterOfMassTransformERK11btTransform
wba:__ZN8dmScriptL11Vector3_subEP9lua_State
LEa:__ZN5dmGui13LuaSetOutlineEP9lua_State
e_a:___lockfile
SQa:_mbedtls_mpi_copy
F7a:_emscripten_glUniform2ui__wrapper
iM:__ZN13btMotionStateD2Ev
k7:__ZN8dmScript8FinalizeEPNS_7ContextE
J7a:_emscripten_glGetTexParameterIuiv__wrapper
wc:_emscripten_glBlendEquation
Dt:__ZN17dmResourceArchive27NewArchiveIndexWithResourceEPNS_21ArchiveIndexContainerEPKhjPKNS_18LiveUpdateResourceEPKcRPNS_12ArchiveIndexE
DR:__ZNK17btCollisionObject21serializeSingleObjectEP12btSerializer
OGa:__ZN5dmGuiL12LuaDoNewNodeEP9lua_StatePNS_5SceneEN10Vectormath3Aos6Point3ENS5_7Vector3ENS_8NodeTypeEPKcPv
sq:__GLOBAL__sub_I_gameobject_ddf_cpp
UJa:__ZN7dmSound16PlatformFinalizeEv
w2:__ZN24b2ChainAndPolygonContactD0Ev
Gn:__ZN11dmTransform11ToTransformERKN10Vectormath3Aos7Matrix4E
i$:__ZNK11b2RopeJoint12GetMaxLengthEv
l1:__ZN7b2Joint6CreateEPK10b2JointDefP16b2BlockAllocator
Tw:__ZN12dmGameSystem18CompGuiSetPropertyERKN12dmGameObject26ComponentSetPropertyParamsE
d8:__ZN8dmScript13SetupCallbackEPNS_15LuaCallbackInfoE
Ri:_llvm_fabs_f64
MB:__ZN12dmGameSystem14ResLabelCreateERKN10dmResource20ResourceCreateParamsE
ff:_emscripten_glStencilMaskSeparate
f9a:_emscripten_glTexSubImage2D__wrapper
PI:__ZN10dmGraphicsL17OpenGLCloseWindowEPNS_7ContextE
HAa:_DoGradientFilter
M2a:dynCall_fiiiii
YCa:__ZN5dmGuiL16RigEventCallbackEN5dmRig12RigEventTypeEPvS2_S2_
u$:__ZN17b2ContactListenerD0Ev
Zv:__GLOBAL__sub_I_comp_factory_cpp
dNa:_ssl_calc_verify_tls
g9:__ZN8dmScript12url_tostringEPKN9dmMessage3URLEPcj
Zt:__ZN11dmLoadQueue7EndLoadEPNS_5QueueEPNS_7RequestEPPvPjPNS_10LoadResultE
sZ:__ZNK11b2GridShape5CloneEP16b2BlockAllocator
Dca:_meth_listen
_ka:_db_getfenv
gC:__ZN12dmGameSystem16ResMeshSetCreateERKN10dmResource20ResourceCreateParamsE
$fa:_lua_load
uHa:_CrashExt
ADa:__ZN5dmGui24SetNodeSpinePlaybackRateEPNS_5SceneEjf
HO:__ZZN23btDiscreteDynamicsWorld16solveConstraintsER19btContactSolverInfoEN27InplaceSolverIslandCallbackD0Ev
$7a:_emscripten_glGetShaderPrecisionFormat__wrapper
Zca:_meth_getfd_7741
qSa:_des3_crypt_cbc_wrap
Uea:_opt_ip6_setmembership
$5a:_emscripten_glBindBuffer__wrapper
Gpa:__ZN5dmRig9SetCursorEPNS_11RigInstanceEfb
ZAa:__ZN5dmGui21SetPhysicalResolutionEPNS_7ContextEjj
Qn:__ZN12dmGameObject14GetComponentIdEPNS_8InstanceEtPy
pn:__ZN11dmHashTableIyyE3PutEyRKy
gPa:_mbedtls_ssl_conf_handshake_timeout
Us:__ZN10dmResource14ReloadResourceEPNS_16SResourceFactoryEPKcPPNS_19SResourceDescriptorE
NY:__ZN15btGjkEpaSolver211PenetrationEPK13btConvexShapeRK11btTransformS2_S5_RK9btVector3RNS_8sResultsEb
cU:__ZNK21btConvexInternalShape28calculateSerializeBufferSizeEv
uva:__ZN8dmThread13SetThreadNameEmPKc
j:tempDoublePtr
w5a:_emscripten_glGenerateMipmap__wrapper
Una:__ZN5dmHID21GetAccelerationPacketEPNS_7ContextEPNS_18AccelerationPacketE
W2a:dynCall_iiiii
dPa:_mbedtls_ssl_sig_hash_set_const_hash
AT:__ZN32btSphereSphereCollisionAlgorithmD2Ev
bva:__ZN5dmSys7OpenURLEPKcS1_
AVa:_mbedtls_md_info_from_type
DDa:__ZN5dmGui17PlayNodeSpineAnimEPNS_5SceneEjyNS_8PlaybackEfffPFvS1_jbPvS3_ES3_S3_
bqa:__ZN5dmRig11GetIKTargetEPNS_11RigInstanceEy
eE:__ZN12dmGameSystemL10Buffer_lenEP9lua_State
SMa:_net_would_block
IAa:_DoVerticalFilter
M6a:b38
N6a:b39
G5a:b34
sNa:_ssl_double_retransmit_timeout
uea:_opt_meth_setoption
N5a:b37
Y4a:b30
_4a:b31
A5a:b32
_ua:__ZN5dmSys22GetNetworkConnectivityEv
X$a:_tmpfile
CTa:_mbedtls_ecdh_setup
yR:__ZN17btCollisionObject24checkCollideWithOverrideEPS_
rE:__ZN12dmGameSystem29ScriptCollectionProxyFinalizeERKNS_16ScriptLibContextE
Kva:_WebPDecodeRGBAInto
tTa:_mbedtls_dhm_calc_secret
Xba:_bit_bor
gv:__ZN12dmGameSystem30CompCollisionObjectDeleteWorldERKN12dmGameObject26ComponentDeleteWorldParamsE
jLa:_eckey_can_do
lna:_loader_preload
Sva:_deflateInit2_
gW:__ZN16btPointCollector20setShapeIdentifiersAEii
Of:_emscripten_glUniform4i
XD:__ZN12dmGameSystemL10CopyBufferEP9lua_State
lta:__ZN6dmJson4FreeEPNS_8DocumentE
Xda:_buffer_meth_receive
uIa:__ZN7dmSoundL19MixResampleUpStereoIhLi128ELi255EEEvPKNS_10MixContextEPNS_13SoundInstanceEjjPfj
xla:_io_popen
fP:__ZN11btRigidBody12applyGravityEv
Mf:_emscripten_glUniform4f
U5a:_emscripten_glBindTexture__wrapper
zx:__ZN12dmGameSystem19CompMeshDeleteWorldERKN12dmGameObject26ComponentDeleteWorldParamsE
Kda:_auxiliar_newclass
Ge:_emscripten_glIsEnabledi
F2:__ZN15b2ContactSolver29InitializeVelocityConstraintsEv
CNa:_ssl_update_out_pointers
rGa:__ZN5dmGuiL17LuaGetOuterBoundsEP9lua_State
It:__ZN10dmResource18MakePathDescriptorEPNS_17ResourcePreloaderEPKcRNS_14PathDescriptorE
tCa:__ZN5dmGui12GetNodeCountEPNS_5SceneE
I6:__GLOBAL__sub_I_material_ddf_cpp
Tf:_emscripten_glUniformMatrix3fv
vz:__ZN12dmGameSystem23CompSpineModelOnMessageERKN12dmGameObject24ComponentOnMessageParamsE
n:threwValue
q1a:__get_timezone
$R:__ZZN16btCollisionWorld13rayTestSingleERK11btTransformS2_P17btCollisionObjectPK16btCollisionShapeS2_RNS_17RayResultCallbackEEN29BridgeTriangleRaycastCallbackD0E_0v
rUa:_mbedtls_ecp_tls_read_group_id
Wu:__ZN12dmGameSystem24CompCollectionProxyFinalERKN12dmGameObject20ComponentFinalParamsE
Asa:__ZN12dmHttpClientL10DoTransferEPNS_6ClientEPNS_8ResponseEiPFvS3_PviPKvjEb
XSa:_aes_ctx_alloc
LZ:__ZNK14b2PolygonShape11ComputeMassEP10b2MassDataf
nWa:_sha384_finish_wrap
SD:__ZN12dmGameSystem20ScriptBufferRegisterERKNS_16ScriptLibContextE
NV:__ZNK23btPolyhedralConvexShape37localGetSupportingVertexWithoutMarginERK9btVector3
Hi:_glfwSetWindowSize
kla:_db_errorfb
YIa:__ZN7dmSound5PauseEPNS_13SoundInstanceEb
zHa:__ZN7dmCrashL18Crash_GetUserFieldEP9lua_State
pXa:_ssl_parse_hello_verify_request
qqa:__ZN8dmBuffer18GetValueTypeStringENS_9ValueTypeE
q$a:_fflush
e$a:_threebyte_strstr
tt:__ZN17dmResourceArchive22CountLiveUpdateEntriesEPKNS_21ArchiveIndexContainerES2_
Daa:__ZN8dmScriptL19Matrix4_PerspectiveEP9lua_State
ESa:_ccm_ctx_alloc
$V:__ZNK13btSphereShape24localGetSupportingVertexERK9btVector3
ZZa:_strcspn
mHa:__ZN7dmCrash9GetSignumEi
Y2:__ZNK15b2FrictionJoint16GetReactionForceEf
fXa:_ssl_conf_has_static_psk
y3:__ZN8dmRender21DeleteDisplayProfilesEPNS_15DisplayProfilesE
WZa:_copysign
_ta:__ZN8dmPPrint7Printer6PrintfEPKcz
Tc:_emscripten_glCompressedTexImage2D
zIa:__ZN7dmSoundL25MixResampleIdentityStereoIsLi0ELi1EEEvPKNS_10MixContextEPNS_13SoundInstanceEjjPfj
lB:__ZN12dmGameSystem18ResFactoryRecreateERKN10dmResource22ResourceRecreateParamsE
Tja:_luaK_indexed
Dea:_opt_set_dontroute
K6a:_emscripten_glVertexAttribI4usv__wrapper
fca:_global_skip
QY:__ZN12gjkepa2_impl3EPA7newfaceEPNS_3GJK3sSVES3_S3_b
T5a:_emscripten_glDeleteTextures__wrapper
O5a:_emscripten_glPixelStorei__wrapper
cla:_db_getregistry
GKa:_mbedtls_md5_starts_ret
Ub:_clock_gettime
vTa:_mbedtls_dhm_free
qM:__ZN9dmPhysics12SetEnabled3DEPNS_7World3DEPvb
Paa:__ZN8dmScriptL4LerpEP9lua_State
Fqa:__ZN12dmConfigFileL7GetCharEPNS_7ContextE
la:invoke_iiiiii
B5a:_emscripten_glUniform1f__wrapper
LQa:_mbedtls_asn1_get_alg
sha:_luaO_int2fb
I_:__ZNK15b2RevoluteJoint17GetReactionTorqueEf
r_a:___DOUBLE_BITS
vMa:_mbedtls_sha1_clone
nVa:_gcm_mult
fea:_inet_global_getaddrinfo
aCa:__ZN5dmGui16UpdateAnimationsEPNS_5SceneEf
BN:__ZN35btSequentialImpulseConstraintSolver45solveGroupCacheFriendlySplitImpulseIterationsEPP17btCollisionObjectiPP20btPersistentManifoldiPP17btTypedConstraintiRK19btContactSolverInfoP12btIDebugDrawP12btStackAlloc
mH:__ZN10dmGraphics24GetDefaultTextureFiltersEPNS_7ContextERNS_13TextureFilterES3_
Uq:__ZN12dmGameObject17CompScriptOnInputERKNS_22ComponentOnInputParamsE
zz:__ZN12dmGameSystemL33CompSpineModelGetConstantCallbackEPvyPPN8dmRender8ConstantE
kg:_emscripten_glVertexAttribI2ui
ZQa:_mbedtls_mpi_bitlen
bl:__ZN8dmEngine8DispatchEPN9dmMessage7MessageEPv
cQa:_x509_profile_check_pk_alg
NC:__ZN12dmGameSystem15ResSoundPreloadERKN10dmResource21ResourcePreloadParamsE
wF:__ZN12dmLiveUpdateL22Callback_StoreResourceEPNS_25StoreResourceCallbackDataE
wAa:_VP8ParseQuant
Sza:_ConvertARGBToY
M1a:___dynamic_cast
P_:__ZNK15b2RevoluteJoint13GetJointAngleEv
M$a:_setvbuf
Uqa:__ZN7dmCrypt7DecryptEPKhjS1_jPPhPj
Jm:__ZN12dmGameObject16CreateComponentsEPNS_10CollectionEPNS_8InstanceE
Zha:_callallgcTM
UTa:_ecdsa_signature_to_asn1
ala:_db_getinfo
CS:__ZN16btManifoldResult20setShapeIdentifiersAEii
nZa:_strtox_21
tO:__ZN23btDiscreteDynamicsWorld25predictUnconstraintMotionEf
ZVa:_sha1_ctx_alloc
s0a:_srand
Q$:__ZN7b2WorldC2ERK6b2Vec2
zv:__ZN12dmGameSystemL15RayCastCallbackERKN9dmPhysics15RayCastResponseERKNS0_14RayCastRequestEPv
VK:__ZN17b2ContactListener10EndContactEP9b2Contact
kn:__ZN12dmGameObject20ReleaseInstanceIndexEjPNS_16CollectionHandleE
Xka:_generic_reader
rZa:_isspace
zja:_luaK_patchlist
WAa:__ZN5dmGui18SetSceneResolutionEPNS_5SceneEjj
Rq:__ZN12dmGameObject21CompScriptAddToUpdateERKNS_26ComponentAddToUpdateParamsE
za:invoke_vi
Loa:__ZN10dmParticle6ReHashEPNS_7ContextEj
ps:__ZN5dmDDF12OutputStream9WriteBoolEb
PG:__ZN12dmGameSystem15LogMessageErrorEPN9dmMessage7MessageEPKcz
X:invoke_fi
Nx:__ZN12dmGameSystem17CompMeshOnMessageERKN12dmGameObject24ComponentOnMessageParamsE
va:invoke_vf
nc:_emscripten_glBindBufferBase
cT:__ZN33btConvexConcaveCollisionAlgorithm10CreateFunc24CreateCollisionAlgorithmER36btCollisionAlgorithmConstructionInfoP17btCollisionObjectS4_
Y$:__ZN7b2World5SolveERK10b2TimeStep
Pza:_WebPConvertARGBToUV_C
Mo:__ZN12dmGameObject8PushHashEPNS_24PropertyContainerBuilderEyy
Hy:__ZN12dmGameSystem11GetPropertyERN12dmGameObject12PropertyDescEyRKN10Vectormath3Aos7Vector4ERKNS_11PropVector4E
WSa:_aes_setkey_dec_wrap
Y2a:dynCall_iiiiiii
DEa:__ZN5dmGui12LuaGetParentEP9lua_State
gU:__ZNK10btBoxShape49batchedUnitVectorGetSupportingVertexWithoutMarginEPK9btVector3PS0_i
o_:__ZN7b2JointD2Ev
rA:__ZN12dmGameSystem18CompTileGridRenderERKN12dmGameObject22ComponentsRenderParamsE
u5:__ZN8dmRender25RenderScript_DisableStateEP9lua_State
yTa:_mbedtls_ecdh_compute_shared
s2:__ZN23b2ChainAndCircleContactD0Ev
H0a:_getsockname
qna:_ll_require
OTa:_ecdh_calc_secret_internal
xV:__ZNK17btConvexHullShape8isInsideERK9btVector3f
nJ:__ZN10dmGraphicsL32OpenGLNewVertexDeclarationStrideEPNS_7ContextEPNS_13VertexElementEjj
hw:__ZN12dmGameSystem15CompFactoryLoadEPN12dmGameObject16CollectionHandleEPNS_16FactoryComponentE
wha:_luaO_str2d
k3a:dynCall_vif
Li:_glfwSwapInterval
Cd:_emscripten_glFramebufferRenderbuffer
In:__ZN12dmGameObject5FinalEPNS_16CollectionHandleE
K5:__ZN8dmRender20RenderScript_SetViewEP9lua_State
Gga:_luaD_precall
HP:__ZN20btAxisSweep3InternalItE11sortMinDownEitP12btDispatcherb
eDa:__ZN5dmGui16SetNodeSpineSkinEPNS_5SceneEjy
Mfa:_lua_getfield
WD:__ZN12dmGameSystemL10CopyStreamEP9lua_State
Nga:_luaD_protectedparser
RHa:__ZN12dmLiveUpdate14VerifyManifestEPN10dmResource8ManifestE
eV:__ZN15btCompoundShapeC2Eb
LU:__ZNK16btCollisionShape17getBoundingSphereER9btVector3Rf
Ara:_dmHashUpdateBuffer32
h8:__ZN8dmScript8CheckDDFEP9lua_StatePKN5dmDDF10DescriptorEPcji
g7a:_emscripten_glUniform2iv__wrapper
OEa:__ZN5dmGui14LuaGetRotationEP9lua_State
PAa:__ZN5dmGui11TextMetricsC2Ev
sra:_dmHashBufferNoReverse32
Ama:_os_time
w0:__ZN13b2DynamicTree10RemoveLeafEi
OMa:_mbedtls_sha512_update_ret
g9a:b57
MQa:_mbedtls_asn1_get_alg_null
Lja:_discharge2reg
ws:__ZN10dmResource11GetManifestEPNS_16SResourceFactoryE
Go:__ZN12dmGameObject21LoadPropertyResourcesEPN10dmResource16SResourceFactoryEPPKcjR7dmArrayIPvE
NN:__ZN35btSequentialImpulseConstraintSolver28setFrictionConstraintImpulseER18btSolverConstraintP11btRigidBodyS3_R15btManifoldPointRK19btContactSolverInfo
IB:__ZN12dmGameSystem21ResInputBindingCreateERKN10dmResource20ResourceCreateParamsE
Vx:__ZN12dmGameSystemL24ResourceReloadedCallbackERKN10dmResource22ResourceReloadedParamsE_2294
ah:_glColorMask
TT:__ZN22SphereTriangleDetector16getClosestPointsERKN36btDiscreteCollisionDetectorInterface17ClosestPointInputERNS0_6ResultEP12btIDebugDrawb
KTa:_ecdh_get_params_internal
ZK:__ZN9dmPhysics12NewContext2DERKNS_16NewContextParamsE
P6:__ZN8dmRender13ParseCommandsEPNS_13RenderContextEPNS_7CommandEj
Hk:FUNCTION_TABLE_viiiiiiiiii
hX:__ZN22btVoronoiSimplexSolver25closestPtPointTetrahedronERK9btVector3S2_S2_S2_S2_R25btSubSimplexClosestResult
p1a:__get_daylight
cda:_meth_send_7750
Fna:__ZN5dmHID10NewContextERKNS_16NewContextParamsE
VHa:__ZN12dmLiveUpdate13StoreManifestEPN10dmResource8ManifestE
dR:__ZN28btHashedOverlappingPairCache15internalAddPairEP17btBroadphaseProxyS1_
Ue:_emscripten_glPolygonOffset
vD:__ZN12dmGameSystem19ResTileGridRecreateERKN10dmResource22ResourceRecreateParamsE
Bx:__ZN12dmObjectPoolIPN12dmGameSystem13MeshComponentEE5AllocEv
L5a:_emscripten_glVertexAttrib4f__wrapper
zoa:__GLOBAL__sub_I_input_ddf_cpp
bKa:__ZN10dmDeviceJS12DeviceJSStopEPv
UH:__ZN10dmGraphics15GetUniformCountEm
iY:__ZN24btConvexTriangleCallbackD2Ev
i2a:runPostSets
iva:__ZN5dmSys13SetEngineInfoERNS_15EngineInfoParamE
yda:_socket_recvfrom
g1:__ZN25b2PolygonAndCircleContact7DestroyEP9b2ContactP16b2BlockAllocator
mB:__ZN12dmGameSystem16AcquireResourcesEPN10dmResource16SResourceFactoryEPN8dmRender13RenderContextEPN11dmRenderDDF7FontMapEPNS3_7FontMapEPKcPSA_b
TM:__ZN9dmPhysics11DebugDraw2D9DrawArrowERK6b2Vec2S3_RK7b2Color
gV:__ZN20btAlignedObjectArrayI20btCompoundShapeChildE9push_backERKS0_
s4a:_memset__wrapper
qy:__ZN12dmGameSystem21CompModelGetComponentEPNS_10ModelWorldEm
_G:__ZN10dmGraphics13DeleteContextEPNS_7ContextE
UY:__Z22btAlignedAllocInternalmi
zKa:_entropy_update
F9:__ZN8dmScript19Sys_SetErrorHandlerEP9lua_State
Zoa:__ZN10dmParticle14RetireInstanceEPNS_7ContextEj
si:_glfwGetWindowRefreshRate
C5a:_emscripten_glVertexAttrib1f__wrapper
FT:__ZN32btSphereSphereCollisionAlgorithmC2EP20btPersistentManifoldRK36btCollisionAlgorithmConstructionInfoP17btCollisionObjectS6_
qI:__ZN10dmGraphics13DeleteTextureEPNS_7TextureE
Yj:FUNCTION_TABLE_iiiiiiiii
ELa:_pk_group_from_specified
EH:__ZN10dmGraphics23EnableVertexDeclarationEPNS_7ContextEPNS_17VertexDeclarationEmm
Rn:__ZN12dmGameObject11ScaleAlongZEPNS_8InstanceE
EM:__ZN9dmPhysics16StepWorldContextC2Ev
Iea:_opt_get_ip_multicast_loop
Se:_emscripten_glNormalPointer
TWa:_mbedtls_ssl_ciphersuite_uses_psk
GG:__GLOBAL__sub_I_mesh_ddf_cpp
ko:__ZN12dmGameObject13GetCollectionEPNS_8InstanceE
CP:__ZN20btAxisSweep3InternalItE9resetPoolEP12btDispatcher
hb:___lock
rba:__ZN8dmScriptL10Vector4_eqEP9lua_State
iLa:_eckey_get_bitlen
JJa:_stb_vorbis_open_memory
Yt:__ZN11dmLoadQueue9BeginLoadEPNS_5QueueEPKcS3_PNS_11PreloadInfoE
JU:__ZNK21btConvexInternalShape32getPreferredPenetrationDirectionEiR9btVector3
d9:__ZN8dmScript16InitializeModuleEP9lua_State
YXa:_mbedtls_x509_get_sig_alg
F5a:_emscripten_glVertexAttrib2f__wrapper
_La:_mbedtls_rsa_rsaes_oaep_decrypt
psa:__ZN12dmHttpClient3NewEPKNS_9NewParamsEPKctb
mla:_gethooktable
Jka:_luaB_pcall
Xla:_math_cos
JS:__ZN31btDefaultCollisionConfiguration31getCollisionAlgorithmCreateFuncEii
B$a:_mbrtowc
asa:__ZN11dmHttpCache3GetEPNS_5CacheEPKcS3_PP8_IO_FILEPy
Cf:_emscripten_glUniform2f
UKa:_mbedtls_pk_get_len
Nq:__ZN12dmGameObject9RunScriptEP9lua_StatePNS_6ScriptENS_14ScriptFunctionEPNS_14ScriptInstanceERKNS_15RunScriptParamsE
LL:__ZN9dmPhysics16SetJointParams2DEPNS_7World2DEPvNS_9JointTypeERKNS_18ConnectJointParamsE
QNa:_ssl_reset_retransmit_timeout
y:Math_floor
xD:__ZN12dmGameSystem22ResVertexProgramCreateERKN10dmResource20ResourceCreateParamsE
YLa:_mbedtls_rsa_rsaes_pkcs1_v15_encrypt
rF:__ZN12dmGameSystemL9SetBufferEP9lua_State
Bm:__ZN12dmGameObject14DeleteRegisterEPNS_8RegisterE
k0:__ZN12b2BroadPhase11CreateProxyERK6b2AABBPv
K0:__ZN9b2Contact7DestroyEPS_P16b2BlockAllocator
VV:__ZN13btSphereShapeD0Ev
GXa:_ssl_write_max_fragment_length_ext
hJ:__ZN10dmGraphicsL20OpenGLNewIndexBufferEPNS_7ContextEjPKvNS_11BufferUsageE
QT:__ZN20btAlignedObjectArrayI9btElementE17quickSortInternalI31btUnionFindElementSortPredicateEEvT_ii
cZa:_dispose_chunk
w$:__ZN16b2ContactManagerC2Ev
iS:__ZN17DebugDrawcallbackD0Ev
Rk:__Z11engine_mainiPPc
MEa:__ZN5dmGui12LuaGetShadowEP9lua_State
TE:__ZN12dmGameSystem15ParticleFX_StopEP9lua_State
uk:FUNCTION_TABLE_viiif
Qfa:_lua_getmetatable
wk:FUNCTION_TABLE_viiii
I6a:_emscripten_glVertexAttribI4sv__wrapper
jsa:__ZN17dmHttpCacheVerifyL11HttpContentEPN12dmHttpClient8ResponseEPviPKvj
Bza:_WebPYuv444ToArgbC
tB:__ZN12dmGameSystem25ResFragmentProgramDestroyERKN10dmResource21ResourceDestroyParamsE
t4a:b16
u4a:b17
q4a:b14
r4a:b15
i4a:b12
j4a:b13
V3a:b10
Y3a:b11
NRa:_mbedtls_cipher_init
v4a:b18
w4a:b19
TG:__ZN10dmGraphics12WindowParamsC2Ev
nW:__ZN30btGjkEpaPenetrationDepthSolver12calcPenDepthER22btVoronoiSimplexSolverPK13btConvexShapeS4_RK11btTransformS7_R9btVector3S9_S9_P12btIDebugDrawP12btStackAlloc
uD:__ZN12dmGameSystem18ResTileGridDestroyERKN10dmResource21ResourceDestroyParamsE
pYa:_mbedtls_ccm_setkey
_c:_emscripten_glDeleteBuffers
mBa:__ZN11dmHashTableIyN5dmGui14DynamicTextureEE3PutEyRKS1_
tya:_VE16
V1:__ZN11b2WeldJointC2EPK14b2WeldJointDef
r9:__ZN8dmScriptL12URL_newindexEP9lua_State
Eu:__ZN12dmGameSystem18CompCameraOnReloadERKN12dmGameObject23ComponentOnReloadParamsE
mba:__ZN8dmScriptL11Vector4_subEP9lua_State
wTa:_mbedtls_ecdh_gen_public
Lia:_luaL_where
lca:_make_assoc
aI:__ZN10dmGraphics12SetBlendFuncEPNS_7ContextENS_11BlendFactorES2_
SEa:__ZN5dmGui10LuaGetSizeEP9lua_State
xS:__ZZN16btCollisionWorld17objectQuerySingleEPK13btConvexShapeRK11btTransformS5_P17btCollisionObjectPK16btCollisionShapeS5_RNS_20ConvexResultCallbackEfEN32BridgeTriangleConvexcastCallback9reportHitERK9btVector3SG_fii
n_:__ZN16b2PrismaticJoint4DumpEv
Fga:_luaD_callhook
fna:_match_class
Pka:_luaB_setfenv
OP:__ZN15btNullPairCacheD2Ev
Pla:_luaopen_math
iga:_lua_setupvalue
cea:_finalize
cM:__ZN9dmPhysics16NewSphereShape3DEPNS_9Context3DEf
g3:__ZNK11b2GearJoint16GetReactionForceEf
SVa:_md5_ctx_alloc
eg:_emscripten_glVertexAttribI1i
j7:__ZN8dmScript6UpdateEPNS_7ContextE
p_a:_wctomb
f1a:___strcoll_l
TQa:_mbedtls_mpi_safe_cond_assign
B0a:_sendto
F6a:_emscripten_glVertexAttribI3uiv__wrapper
cp:__ZN12dmGameObject10Script_SetEP9lua_State
SUa:_ecp_check_pubkey_mx
cJa:__ZN7dmSound14IsMusicPlayingEv
i4:__ZN8dmRender33GetMaterialProgramConstantElementEPNS_8MaterialEyjRf
sGa:__ZN5dmGuiL13LuaSetLeadingEP9lua_State
Q3:__ZN8dmRender15AddGlyphToCacheEPNS_7FontMapERNS_11TextContextEPNS_5GlyphEs
gRa:_mbedtls_mpi_cmp_abs
$v:__ZN12dmGameSystem22CompFactoryDeleteWorldERKN12dmGameObject26ComponentDeleteWorldParamsE
_O:__ZN11btRigidBody12setMassPropsEfRK9btVector3
Hia:_luaZ_openspace
fGa:__ZN5dmGuiL15LuaShowKeyboardEP9lua_State
uW:__ZN33btMinkowskiPenetrationDepthSolver12calcPenDepthER22btVoronoiSimplexSolverPK13btConvexShapeS4_RK11btTransformS7_R9btVector3S9_S9_P12btIDebugDrawP12btStackAlloc
ixa:_VP8InitIoInternal
yra:_dmHashInit32
o6a:_emscripten_glBlendFunc__wrapper
H2a:dynCall_fi
Gb:___syscall91
cA:__ZN12dmGameSystem23CompTileGridDeleteWorldERKN12dmGameObject26ComponentDeleteWorldParamsE
ela:_db_getupvalue
a1:__ZN23b2GridAndPolygonContactD0Ev
cY:__ZN33btConvexConcaveCollisionAlgorithm16processCollisionEP17btCollisionObjectS1_RK16btDispatcherInfoP16btManifoldResult
FD:__ZN12dmGameSystem14GetStreamValueIyEEdPvi
T0a:_getsockopt
Rwa:_VP8ExitCritical
_Sa:_mbedtls_des_free
DU:__ZN14btCapsuleShape9setMarginEf
Lqa:__ZN12dmConfigFileL20LoadFromFileInternalEPKciPS1_PPNS_6ConfigE
DRa:_mpi_montmul
Rf:_emscripten_glUniformBlockBinding
gOa:_ssl_load_buffered_message
zU:__ZNK14btCapsuleShape7getAabbERK11btTransformR9btVector3S4_
KZa:_uname
XIa:__ZN7dmSound4PlayEPNS_13SoundInstanceE
en:__ZN12dmGameObject15UndoNewInstanceEPNS_10CollectionEPNS_8InstanceE
w7:__ZN8dmScript16RegisterUserTypeEP9lua_StatePKcPK8luaL_RegS6_
NJa:__ZN12dmSoundCodec14WavCloseStreamEPv
Vea:_opt_set_ip6_drop_membersip
Vr:__ZN5dmDDF17DoResolvePointersEPKNS_10DescriptorEPv
fr:__ZN5dmDDFL17CalculateRepeatedEPNS_11LoadContextEPNS_11InputBufferEPKNS_10DescriptorE
Iua:__ZN8dmSocket13SelectorIsSetEPNS_8SelectorENS_12SelectorKindEi
cg:_emscripten_glVertexAttrib4fv
wXa:_ssl_parse_session_ticket_ext
Rxa:_TransformWHT
d1a:_iscntrl
SI:__ZN10dmGraphicsL19OpenGLGetDisplayDpiEPNS_7ContextE
Jna:__ZN5dmHID18IsGamepadConnectedEPNS_7GamepadE
Cr:__ZN5dmDDF11InputBuffer10ReadDoubleEPd
Og:_glActiveTexture
yma:_os_rename
Dra:_dmHashClone64
uh:_glEnableVertexAttribArray
ZYa:_malloc
Kka:_luaB_print
vla:_io_open
KN:__ZN35btSequentialImpulseConstraintSolver12getFixedBodyEv
Bn:__ZN12dmGameObject24DispatchMessagesFunctionEPN9dmMessage7MessageEPv
RD:__ZN12dmGameSystem14SetStreamValueIhEEvPvid
Mr:__ZN5dmDDF7Message9SetScalarEPKNS_15FieldDescriptorEPKvi
r_:__ZN16b2PrismaticJoint24SolveVelocityConstraintsERK12b2SolverData
cu:__ZN10dmResource22UnmountArchiveInternalERPN17dmResourceArchive21ArchiveIndexContainerEPv
aha:_luaC_callGCTM
iKa:__ZN12dmSoundCodec4SkipEPNS_12CodecContextEPNS_7DecoderEjPj
F0:__ZN16b2StackAllocator4FreeEPv
xSa:_des_crypt_ecb_wrap
kGa:__ZN5dmGuiL18LuaSetPieFillAngleEP9lua_State
$Ea:__ZN5dmGui20LuaGetSpineAnimationEP9lua_State
Yia:_luaL_getmetafield
vaa:__ZN8dmScriptL14Quat_AxisAngleEP9lua_State
kD:__ZN12dmGameSystem16AcquireResourcesEPN9dmPhysics9Context2DEPN10dmResource16SResourceFactoryEPN15dmGameSystemDDF10TextureSetEPNS_18TextureSetResourceEPKcb
xXa:_ssl_parse_supported_point_formats_ext
tYa:_mbedtls_ccm_encrypt_and_tag
gf:_emscripten_glStencilOp
tQa:_mbedtls_aes_init
Tla:_math_atan2
NCa:__ZN5dmGui18GetNodeTextLeadingEPNS_5SceneEj
jja:_luaL_loadfile
uU:__ZZN22btBvhTriangleMeshShape14performRaycastEP18btTriangleCallbackRK9btVector3S4_EN21MyNodeOverlapCallback11processNodeEii
dt:__ZN10dmResource11SetResourceEPNS_16SResourceFactoryEyPv
V7a:_emscripten_glUniformMatrix3fv__wrapper
mXa:_ssl_parse_signature_algorithm
yha:_luaO_pushfstring
xVa:_mbedtls_hmac_drbg_random_with_add
yla:_io_read
Nn:__ZN12dmGameObject25GetInstanceFromIdentifierEPNS_10CollectionEy
IJ:__ZN10dmGraphicsL20OpenGLGetUniformNameEmjPcjPNS_4TypeE
vIa:__ZN7dmSoundL19MixResampleUpStereoIsLi0ELi1EEEvPKNS_10MixContextEPNS_13SoundInstanceEjjPfj
WK:__ZN17b2ContactListener8PreSolveEP9b2ContactPK10b2Manifold
TO:__ZN17btCollisionObject17setCollisionShapeEP16btCollisionShape
M_a:_trinkle
Zm:__ZNSt3__26__sortIRN12dmGameObject21ComponentTypeSortPredEPtEEvT0_S5_T_
OYa:_chachapoly_crypt_and_tag
nMa:_mbedtls_rsa_pkcs1_verify
Aja:_luaK_patchtohere
PH:__ZN10dmGraphics19DeleteVertexProgramEm
Bda:_socket_hoststrerror
$Ma:_tls_prf_generic
W3a:_emscripten_glCreateProgram__wrapper
Vqa:__ZN7dmCrypt8HashSha1EPKhjPh
Zfa:_lua_pcall
WA:__ZN12dmGameSystem24ResCollisionObjectCreateERKN10dmResource20ResourceCreateParamsE
RGa:__ZN5dmGuiL18NodeProxy_newindexEP9lua_State
WBa:__ZN5dmGui20UpdateLocalTransformEPNS_5SceneEPNS_12InternalNodeE
Wea:_opt_get_ip6_v6only
Wca:_meth_close_7733
hC:__ZN12dmGameSystem17ResMeshSetDestroyERKN10dmResource21ResourceDestroyParamsE
DJ:__ZN10dmGraphicsL27OpenGLDeleteFragmentProgramEm
Aq:__ZN12dmGameObject19CompAnimAddToUpdateERKNS_26ComponentAddToUpdateParamsE
swa:__ZN19dmConditionVariable6SignalEPNS_17ConditionVariableE
aba:__ZN8dmScriptL14Matrix4_concatEP9lua_State
tAa:_inflate_fast
UK:__ZN17b2ContactListener12BeginContactEP9b2Contact
VJ:__ZN10dmGraphicsL16OpenGLSetScissorEPNS_7ContextEiiii
tn:__ZNK10Vectormath3Aos7Matrix4mlERKS1_
c7a:_emscripten_glGetVertexAttribiv__wrapper
P5:__ZN8dmRender27RenderScript_SetStencilMaskEP9lua_State
Mia:_luaL_checkoption
_j:FUNCTION_TABLE_iiiiiiiiiiii
lPa:_mbedtls_ssl_get_verify_result
kEa:__ZN5dmGui13MoveNodeBelowEPNS_5SceneEjj
k4a:_emscripten_glGetStringi__wrapper
GHa:__ZN7dmCrashL18Crash_SetUserFieldEP9lua_State
NHa:_JSWriteDump
Bja:_luaK_checkstack
$n:__ZN12dmGameObject15GetUniformScaleEPNS_8InstanceE
TVa:_md5_ctx_free
$ma:_str_reverse
bz:__GLOBAL__sub_I_comp_spine_model_cpp
DD:__ZN12dmGameSystem14GetStreamValueIsEEdPvi
qfa:_lua_lessthan
Rja:_luaK_goiftrue
qr:__ZN5dmDDF11InputBufferC2Ev
Fh:_glGetIntegerv
EEa:__ZN5dmGui14LuaGetPositionEP9lua_State
hQ:__ZN16btDbvtBroadphase7setAabbEP17btBroadphaseProxyRK9btVector3S4_P12btDispatcher
Fua:__ZN8dmSocket4SendEiPKviPi
lX:__ZN22btVoronoiSimplexSolver14compute_pointsER9btVector3S1_
yf:_emscripten_glUniform1fv
Gr:__ZN5dmDDF11InputBuffer10ReadUInt64EPy
Bi:_glfwSetGamepadCallback
aoa:__ZN5dmHIDL15GamepadCallbackEii
nG:__ZN12dmGameSystemL18TileMap_SetVisibleEP9lua_State
rpa:__ZN10dmParticle11GetMaterialEPNS_9PrototypeEj
Saa:__ZN8dmScriptL6RotateEP9lua_State
wua:__ZN8dmSocket3NewENS_6DomainENS_4TypeENS_8ProtocolEPi
LC:__ZN12dmGameSystem19ResSkeletonRecreateERKN10dmResource22ResourceRecreateParamsE
rDa:__ZN5dmGui12SetNodeLayerEPNS_5SceneEjy
poa:__ZN7dmInputL17NewGamepadBindingEPNS_7BindingEj
Owa:_FinishRow
_X:__ZN22btCompoundLeafCallback7ProcessEPK10btDbvtNode
rfa:_lua_tonumber
NO:__ZN15btTransformUtil18integrateTransformERK11btTransformRK9btVector3S5_fRS0_
iEa:__ZN5dmGui14SetNodeEnabledEPNS_5SceneEjb
kJ:__ZN10dmGraphicsL27OpenGLSetIndexBufferSubDataEmjjPKv
aY:__ZN33btConvexConcaveCollisionAlgorithmD2Ev
i6a:_emscripten_glDeleteFramebuffers__wrapper
EUa:_mbedtls_mpi_mul_mod
qH:__ZN10dmGraphics5ClearEPNS_7ContextEjhhhhfj
wja:_luaK_concat
Yma:_str_lower
l5a:_emscripten_glEnableVertexAttribArray__wrapper
zna:__ZN11dmExtension13AppInitializeEPNS_9AppParamsE
qsa:__ZN12dmHttpClient3NewEPKNS_9NewParamsEPKct
exa:_EmitYUV
o4:__ZN8dmRender20SetMaterialUserData1EPNS_8MaterialEy
oKa:_mbedtls_ctr_drbg_seed_entropy_len
pB:__ZN12dmGameSystem17ResFontMapDestroyERKN10dmResource21ResourceDestroyParamsE
t2:__ZN23b2ChainAndCircleContact6CreateEP9b2FixtureiS1_iP16b2BlockAllocator
yea:_opt_set_reuseport
QYa:_mbedtls_poly1305_init
jFa:__ZN5dmGuiL15LuaNewSpineNodeEP9lua_State
yT:__ZN25btSimulationIslandManager22buildAndProcessIslandsEP12btDispatcherP16btCollisionWorldPNS_14IslandCallbackE
Cea:_opt_get_keepalive
hCa:__ZN5dmGuiL16AnimateComponentEPNS_5SceneEjPffN8dmEasing5CurveENS_8PlaybackEfffPFvS1_jbPvS6_ES6_S6_
sOa:_ssl_update_in_pointers
oA:__ZN12dmGameSystem23CompTileGridAddToUpdateERKN12dmGameObject26ComponentAddToUpdateParamsE
bfa:_lua_atpanic
YY:__ZN15CProfileManager13Start_ProfileEPKc
YP:__ZN15btNullPairCache19cleanProxyFromPairsEP17btBroadphaseProxyP12btDispatcher
Q6:__GLOBAL__sub_I_script_cpp
b5:__ZNSt3__213__stable_sortIRN8dmRender16RenderListSorterEPjEEvT0_S5_T_NS_15iterator_traitsIS5_E15difference_typeEPNS8_10value_typeEl
wOa:_ssl_prepare_record_content
vV:__ZNK17btConvexHullShape12getNumPlanesEv
O4:__ZN8dmRender15RenderListAllocEPNS_13RenderContextEj
Qh:_glRenderbufferStorage
IEa:__ZN5dmGui11LuaGetColorEP9lua_State
vva:__ZN6dmTime5SleepEj
Wv:__ZN12dmGameSystem17CompEmitterCreateERKN12dmGameObject21ComponentCreateParamsE
TZa:_scalbnl
fLa:_rsa_alloc_wrap
yk:FUNCTION_TABLE_viiiiffffiif
Yza:_VP8GetSignedValue
rR:__ZN21btCollisionDispatcher26getInternalManifoldPointerEv
T8:__ZN8dmScript10Image_LoadEP9lua_State
rNa:_ssl_set_timer
ph:_glDisable
xa:invoke_vffff
kHa:__ZN7dmCrash13IsValidHandleEi
_6a:_emscripten_glGetRenderbufferParameteriv__wrapper
zta:__ZN11dmHashTableIyN9dmMessage13MessageSocketEE11SetCapacityEjj
Id:_emscripten_glGenRenderbuffers
Yb:_dmDeviceJSQueue
Ula:_math_atan
jJa:__ZN12dmSoundCodec16StbVorbisGetInfoEPvPNS_4InfoE
$B:__ZN12dmGameSystem14ResMeshPreloadERKN10dmResource21ResourcePreloadParamsE
p7:__ZN8dmScript9GetGlobalEP9lua_Statej
zJ:__ZN10dmGraphicsL19OpenGLDeleteProgramEPNS_7ContextEm
n0:__ZN12b2BroadPhase10TouchProxyEi
hLa:_rsa_debug
tSa:_des3_ctx_alloc
mZa:___stdio_write
C4a:_emscripten_glLoadIdentity__wrapper
Kf:_emscripten_glUniform3iv
Eg:_emscripten_set_main_loop_arg
_5:__ZN8dmRender27RenderScript_EnableMaterialEP9lua_State
$Da:__ZN5dmGui13GetNodeIsBoneEPNS_5SceneEj
xza:_WebPYuv444ToRgbC
zAa:_VP8ParseProba
zV:__ZN21btConvexInternalShapeD0Ev
wv:__ZN12dmGameSystem16DispatchCallbackEPN9dmMessage7MessageEPv
uDa:__ZN5dmGui21GetNodeFlipbookCursorEPNS_5SceneEj
NVa:_mbedtls_md_get_size
Bga:_luaD_rawrunprotected
f0a:_do_read_204
kq:__ZN12dmGameObject18ResPrototypeCreateERKN10dmResource20ResourceCreateParamsE
l3:__ZN11b2GearJoint24SolveVelocityConstraintsERK12b2SolverData
qS:__ZN16btCollisionWorld17objectQuerySingleEPK13btConvexShapeRK11btTransformS5_P17btCollisionObjectPK16btCollisionShapeS5_RNS_20ConvexResultCallbackEf
Mpa:__ZN5dmRig11SetMeshSlotEPNS_11RigInstanceEyy
ft:__ZN10dmResource20GetTypeFromExtensionEPNS_16SResourceFactoryEPKcPm
o_a:_pad_129
ila:_db_setmetatable
hWa:_sha224_clone_wrap
dX:__ZN22btVoronoiSimplexSolver5resetEv
x_a:___pthread_self_665
c$a:_strchr
lDa:__ZN5dmGui17GetNodeParticlefxEPNS_5SceneEjRy
YAa:__ZN5dmGui13GetDisplayDpiEPNS_5SceneE
cWa:_sha224_update_wrap
Bv:__ZN12dmGameSystem28CompCollisionObjectOnMessageERKN12dmGameObject24ComponentOnMessageParamsE
m8a:_emscripten_glRenderbufferStorage__wrapper
mg:_emscripten_glVertexAttribI3i
fc:_emscripten_get_now
VT:__ZN22SphereTriangleDetectorC2EP13btSphereShapeP15btTriangleShapef
b_a:_vsnprintf
Eo:__ZN12dmGameObject14SetPropertySetEPNS_10PropertiesENS_13PropertyLayerERKNS_11PropertySetE
ak:FUNCTION_TABLE_vd
hk:FUNCTION_TABLE_vi
hr:__ZN5dmDDF11SaveMessageEPKvPKNS_10DescriptorEPvPFbS5_S1_jE
Fxa:_VP8LDecodeImage
u9:__ZN8dmScript8Sys_SaveEP9lua_State
cS:__ZZN16btCollisionWorld13rayTestSingleERK11btTransformS2_P17btCollisionObjectPK16btCollisionShapeS2_RNS_17RayResultCallbackEEN29BridgeTriangleRaycastCallback9reportHitERK9btVector3fii
Vt:__ZN10dmResource11PreloadHintEPNS_15PreloadHintInfoEPKc
dga:_lua_error
cPa:_mbedtls_ssl_sig_hash_set_init
Z7:__ZN8dmScript13GetLuaGCCountEP9lua_State
$H:__ZN10dmGraphics12DisableStateEPNS_7ContextENS_5StateE
CAa:_VerticalUnfilter
ZLa:_mbedtls_rsa_pkcs1_encrypt
Ota:__ZN9dmMessage8ParseURLEPKcPNS_9StringURLE
pKa:_mbedtls_ctr_drbg_reseed
sza:_UpsampleBgraLinePair
S4:__ZN8dmRender20RegisterRenderTargetEPNS_13RenderContextEPN10dmGraphics12RenderTargetEy
Jj:FUNCTION_TABLE_fiiifii
pga:_lua_setlocal
opa:__ZN10dmParticle20GetEmitterRenderDataEPNS_7ContextEjjPPNS_17EmitterRenderDataE
yU:__ZN14btCapsuleShapeD0Ev
S:assert
Kl:__ZN3Map5SetupEiiiiib
Na:invoke_viiifii
Ew:__ZN12dmGameSystem18CompGuiAddToUpdateERKN12dmGameObject26ComponentAddToUpdateParamsE
IX:__ZN26btBoxBoxCollisionAlgorithmD0Ev
Xwa:_CustomTeardown
iG:__ZN12dmGameSystemL19TileMap_SetConstantEP9lua_State
Ze:_emscripten_glRotatef
THa:__ZN12dmLiveUpdateL23VerifyManifestSignatureEPN10dmResource8ManifestE
hNa:_tls_prf_get_type
Qwa:_VP8EnterCritical
vza:_UpsampleRgb565LinePair
UC:__ZN12dmGameSystem20ResSpineModelPreloadERKN10dmResource21ResourcePreloadParamsE
Pw:__ZN12dmGameSystem22GuiGetUserDataCallbackEPN5dmGui5SceneE
Be:_emscripten_glGetVertexAttribfv
PWa:_mbedtls_ssl_ciphersuite_from_id
qw:__ZN12dmGameSystem13SetupGuiSceneEPN5dmGui5SceneEPNS_16GuiSceneResourceE
aja:_luaL_findtable
Jb:__arraySum
zqa:__ZN8dmBuffer9GetStreamEjyPPvPjS2_S2_
P0:__ZN22b2EdgeAndCircleContact8EvaluateEP10b2ManifoldRK11b2TransformS4_
L9:__ZN8dmScriptL22Sys_SetUpdateFrequencyEP9lua_State
UCa:__ZN5dmGui14SetNodeTextureEPNS_5SceneEjPKc
uAa:_ALPHDelete
vT:__ZN25btSimulationIslandManager10findUnionsEP12btDispatcherP16btCollisionWorld
PFa:__ZN5dmGuiL11LuaGetPivotEP9lua_State
aH:__ZN10dmGraphics8FinalizeEv
zS:__ZN21btSingleSweepCallbackD0Ev
V0:__ZN23b2EdgeAndPolygonContact6CreateEP9b2FixtureiS1_iP16b2BlockAllocator
ji:_glfwGetJoystickHats
cya:_HFilter8i
Jba:__ZN8dmScript12CheckVector3EP9lua_Statei
ku:__ZN12dmGameSystem10GuiContextC2Ev
kd:_emscripten_glDetachShader
WJa:__ZN7dmSound25PlatformIsPhoneCallActiveEv
sTa:_mbedtls_dhm_make_public
Xa:invoke_viiiiiiiif
tWa:_sha512_starts_wrap
MN:__ZN35btSequentialImpulseConstraintSolver21addFrictionConstraintERK9btVector3P11btRigidBodyS4_iR15btManifoldPointS2_S2_P17btCollisionObjectS8_fff
eo:__ZN12dmGameObject6UpdateEPNS_16CollectionHandleEPKNS_13UpdateContextE
e5:__ZNSt3__215__inplace_mergeIRN8dmRender16RenderListSorterEPjEEvT0_S5_S5_T_NS_15iterator_traitsIS5_E15difference_typeES9_PNS8_10value_typeEl
LV:__ZN23btPolyhedralConvexShapeD0Ev
Kfa:_lua_pushthread
aVa:_ecp_mod_p224k1
Era:_dmHashUpdateBuffer64
k2:__Z22b2CollideEdgeAndCircleP10b2ManifoldPK11b2EdgeShapeRK11b2TransformPK13b2CircleShapeS6_
A1a:__ZN10__cxxabiv116__shim_type_infoD2Ev
GJa:_uint32_compare
aS:__ZZN16btCollisionWorld13rayTestSingleERK11btTransformS2_P17btCollisionObjectPK16btCollisionShapeS2_RNS_17RayResultCallbackEEN29BridgeTriangleRaycastCallback9reportHitE_0RK9btVector3fii
fD:__ZN12dmGameSystem17ResTexturePreloadERKN10dmResource21ResourcePreloadParamsE
TXa:_mbedtls_x509_get_time
Bf:_emscripten_glUniform1ui
JM:__ZN9dmPhysics19OverlapCacheAddDataC2Ev
G0:__ZN7b2TimerC2Ev
Z5:__ZN8dmRender22RenderScript_PredicateEP9lua_State
yna:__ZN11dmExtension17GetFirstExtensionEv
AV:__ZNK21btConvexInternalShape7getAabbERK11btTransformR9btVector3S4_
yn:__ZN12dmGameObject4InitEPNS_16CollectionHandleE
iT:__ZN16btEmptyAlgorithmC2ERK36btCollisionAlgorithmConstructionInfo
RRa:_add_pkcs_padding
Dv:__ZN12dmGameSystem30CompCollisionObjectGetPropertyERKN12dmGameObject26ComponentGetPropertyParamsERNS0_12PropertyDescE
nR:__ZN21btCollisionDispatcher13needsResponseEP17btCollisionObjectS1_
xU:__ZZN22btBvhTriangleMeshShape17performConvexcastEP18btTriangleCallbackRK9btVector3S4_S4_S4_EN21MyNodeOverlapCallback11processNodeEii
c1a:_isgraph
WWa:_ssl_parse_server_hello
mn:__ZN12dmGameObject13SetIdentifierEPNS_16CollectionHandleEPNS_8InstanceEy
kaa:__ZN8dmScript9ToVector3EP9lua_Statei
ida:_meth_setsockname
rua:__ZN8dmSocketL14NativeToResultEPKcii
DKa:_mbedtls_md5_init
pZ:__ZN11b2EdgeShape3SetERK6b2Vec2S2_
N0a:_isalpha
Pra:__ZN11dmHashTableIyN11dmHttpCache5EntryEE3PutEyRKS1_
NUa:_ecp_comb_recode_core
Sla:_math_asin
gQa:_x509_profile_check_md_alg
gDa:__ZN5dmGui16GetNodeSpineSkinEPNS_5SceneEj
FB:__ZN12dmGameSystem18ResCreateSceneDescERKN10dmResource20ResourceCreateParamsE
Ata:__ZN9dmMessage9GetSocketEPKcPy
vOa:_ssl_buffer_future_record
yO:__ZN23btDiscreteDynamicsWorld18saveKinematicStateEf
s1a:__Znwm
Vpa:__ZN5dmRig9GetCursorEPNS_11RigInstanceEb
Wma:_str_gsub
mS:__ZThn4_N17DebugDrawcallbackD0Ev
$ba:_bit_arshift
XHa:__ZN12dmLiveUpdate27NewArchiveIndexWithResourceEPN10dmResource8ManifestEPKcjPKN17dmResourceArchive18LiveUpdateResourceERPNS5_12ArchiveIndexE
xFa:__ZN5dmGuiL13LuaSetTextureEP9lua_State
uj:_time
lI:__ZN10dmGraphics15SetRenderTargetEPNS_7ContextEPNS_12RenderTargetEj
fta:__ZN7dmImage13BytesPerPixelENS_4TypeE
YL:__ZN9dmPhysics11StepWorld3DEPNS_7World3DERKNS_16StepWorldContextE
A8a:_emscripten_glUniform4i__wrapper
wla:_io_output
iYa:_mbedtls_camellia_setkey_enc
H6:__GLOBAL__sub_I_font_ddf_cpp
gi:_glfwGetDefaultFramebuffer
voa:__ZN7dmInput12UpdateActionEPvPKyPNS_6ActionE
eka:_luaX_next
Wka:_getfunc
jEa:__ZN5dmGuiL22SetDirtyLocalRecursiveEPNS_5SceneEj
kRa:_mbedtls_mpi_add_mpi
kIa:__ZN12dmDeviceNull15DeviceNullCloseEPv
Ae:_emscripten_glGetVertexAttribPointerv
JPa:_x509_crt_parse_der_core
v6:__ZN11dmHashTableIyPN8dmRender8MaterialEE11SetCapacityEjj
KO:__ZN34btClosestNotMeConvexResultCallbackD0Ev
x8:__ZN8dmScript9CheckHashEP9lua_Statei
oq:__ZN12dmGameObject16ResScriptPreloadERKN10dmResource21ResourcePreloadParamsE
dMa:_mem_move_to_left
WB:__ZN12dmGameSystem19ResMaterialRecreateERKN10dmResource22ResourceRecreateParamsE
Z5a:_emscripten_glBindRenderbuffer__wrapper
bSa:_mbedtls_cipher_update
QD:__ZN12dmGameSystem14SetStreamValueItEEvPvid
j6a:_emscripten_glBindProgramARB__wrapper
o1a:__get_tzname
sd:_emscripten_glDrawElementsInstanced
UOa:_mbedtls_ssl_write_finished
mM:__ZN9dmPhysics23DeleteCollisionObject3DEPNS_7World3DEPv
Ra:invoke_viiiii
Eoa:__ZN10dmParticle14CreateInstanceEPNS_7ContextEPNS_9PrototypeEPNS_23EmitterStateChangedDataE
Jp:__ZN12dmGameObjectL25ScriptInstanceResolvePathEP9lua_State
dra:__ZN5dmDNS14RefreshChannelEPNS_7ChannelE
HPa:_mbedtls_x509_crt_parse_der_internal
Ur:__ZN5dmDDF7Message22AllocateRepeatedBufferEPNS_11LoadContextEPKNS_15FieldDescriptorEi
Noa:__ZN10dmParticle17ApplyAccelerationER7dmArrayINS_8ParticleEEPNS_8PropertyERKN10Vectormath3Aos4QuatEfff
oZ:__ZNK11b2EdgeShape11ComputeMassEP10b2MassDataf
rXa:_ssl_parse_renegotiation_info
ty:__ZN12dmGameSystem25CompParticleFXDeleteWorldERKN12dmGameObject26ComponentDeleteWorldParamsE
Fwa:_jsmn_parse
xea:_opt_get_reuseaddr
$N:__ZN23btDiscreteDynamicsWorld13addConstraintEP17btTypedConstraintb
QAa:__ZN5dmGui11InputActionC2Ev
$5:__ZN8dmRender28RenderScript_DisableMaterialEP9lua_State
I0a:_htonl
S_:__ZN15b2RevoluteJoint11EnableMotorEb
xF:__ZN12dmLiveUpdate22Resource_StoreManifestEP9lua_State
_w:__ZN12dmObjectPoolIN12dmGameSystem14LabelComponentEE5AllocEv
G:Math_asin
b4:__ZN8dmRender20ApplyMaterialSamplerEPNS_13RenderContextEPNS_8MaterialEjPN10dmGraphics7TextureE
L2:__ZN15b2ContactSolver27SolveTOIPositionConstraintsEii
Zx:__ZN12dmGameSystemL21CompModelPoseCallbackEPvS0_
mq:__ZN12dmGameObject19ResPrototypeDestroyERKN10dmResource21ResourceDestroyParamsE
yOa:_mbedtls_ssl_read_version
oD:__ZN12dmGameSystem20ResTextureSetDestroyERKN10dmResource21ResourceDestroyParamsE
Pr:__ZN5dmDDF7Message9SetStringEPNS_11LoadContextEPKNS_15FieldDescriptorEPKci
eF:__ZN12dmGameSystemL30Physics_GetJointReactionTorqueEP9lua_State
t$:__ZN6b2Body9SetActiveEb
o7a:_emscripten_glGetProgramiv__wrapper
pi:_glfwGetMouseWheel
Lz:__ZN12dmGameSystem21CompSpriteDeleteWorldERKN12dmGameObject26ComponentDeleteWorldParamsE
rva:__ZN8dmThread11SetTlsValueEjPv
vr:__ZN5dmDDF11InputBuffer4ReadEiPPKc
UFa:__ZN5dmGuiL12LuaSetSlice9EP9lua_State
EY:__ZN15btGjkConvexCastD0Ev
aP:__ZN11btRigidBody26predictIntegratedTransformEfR11btTransform
p:undef
uja:_luaK_jump
Ti:_llvm_floor_f64
DN:__ZN35btSequentialImpulseConstraintSolver28solveGroupCacheFriendlySetupEPP17btCollisionObjectiPP20btPersistentManifoldiPP17btTypedConstraintiRK19btContactSolverInfoP12btIDebugDrawP12btStackAlloc
mC:__ZN12dmGameSystemL16ReleaseResourcesEPN10dmResource16SResourceFactoryEPNS_13ModelResourceE
oPa:_mbedtls_ssl_handshake
Z3a:_emscripten_glGetString__wrapper
l7:__ZN8dmScript5UnrefEP9lua_Stateii
QWa:_ciphersuite_is_removed
o2a:___udivmoddi4
uS:__ZZN16btCollisionWorld17objectQuerySingleEPK13btConvexShapeRK11btTransformS5_P17btCollisionObjectPK16btCollisionShapeS5_RNS_20ConvexResultCallbackEfEN32BridgeTriangleConvexcastCallbackD0E_0v
bC:__ZN12dmGameSystemL16ReleaseResourcesEPN10dmResource16SResourceFactoryEPNS_12MeshResourceE
Kpa:__ZN5dmRig7GetMeshEPNS_11RigInstanceE
Laa:__ZN8dmScriptL9LengthSqrEP9lua_State
Mwa:_VP8ProcessRow
VGa:__ZN5dmGuiL26GuiScriptInstance_newindexEP9lua_State
yWa:_mbedtls_oid_get_sig_alg
WMa:_mbedtls_ssl_session_free
Kq:__ZN12dmGameObject18CompScriptNewWorldERKNS_23ComponentNewWorldParamsE
nD:__ZN12dmGameSystem19ResTextureSetCreateERKN10dmResource20ResourceCreateParamsE
f5:__ZNSt3__224__buffered_inplace_mergeIRN8dmRender16RenderListSorterEPjEEvT0_S5_S5_T_NS_15iterator_traitsIS5_E15difference_typeES9_PNS8_10value_typeE
KA:__ZN12dmGameSystem16ResCameraDestroyERKN10dmResource21ResourceDestroyParamsE
kR:__ZN21btCollisionDispatcher15releaseManifoldEP20btPersistentManifold
LO:__ZNK34btClosestNotMeConvexResultCallback14needsCollisionEP17btBroadphaseProxy
$ia:_luaL_openlib
F_a:___towrite
cja:_luaL_prepbuffer
kUa:_mbedtls_ecp_group_copy
TDa:__ZN5dmGui18SetNodeInnerRadiusEPNS_5SceneEjf
DZa:___stpcpy
yt:__ZN17dmResourceArchive22WriteResourceToArchiveERPNS_21ArchiveIndexContainerEPKhmRjS5_
sba:__ZN8dmScriptL16Vector3_tostringEP9lua_State
M5:__ZN8dmRender25RenderScript_SetBlendFuncEP9lua_State
Z8:__ZN8dmScript7LuaLoadEP9lua_StatePN8dmLuaDDF9LuaSourceE
o5:__ZN11dmHashTableIyN10Vectormath3Aos7Vector4EE3PutEyRKS2_
dv:__ZN12dmGameSystem17GetWorldTransformEPvRN11dmTransform9TransformE
hQa:_x509_crt_check_ee_locally_trusted
gwa:__tr_stored_block
Sya:_VP8LConvertFromBGRA
dn:__ZN12dmGameObject11NewInstanceEPNS_10CollectionEPNS_9PrototypeEPKc
jf:_emscripten_glTexCoordPointer
IL:__ZN9dmPhysics12GetGravity2DEPNS_7World2DE
B_:__ZNK16b2PrismaticJoint14IsMotorEnabledEv
Ada:_socket_gethostbyname
L4a:_emscripten_glDepthRange__wrapper
tja:_luaK_codeABC
Z3:__ZN11dmHashTableIyiE11SetCapacityEjj
g6:__ZN8dmRenderL26RenderScriptInstance_indexEP9lua_State
Wia:_luaL_checkinteger
_Va:_sha1_ctx_free
ch:_glCompressedTexImage2D
Vu:__ZN12dmGameSystem26CompCollectionProxyDestroyERKN12dmGameObject22ComponentDestroyParamsE
Dwa:__ZN16dmConnectionPool8ShutdownEPNS_14ConnectionPoolEN8dmSocket12ShutdownTypeE
I2:__ZN15b2ContactSolver13StoreImpulsesEv
vja:_luaK_codeABx
SV:__ZN34btPolyhedralConvexAabbCachingShape15recalcLocalAabbEv
YW:__ZNK15btTriangleShape8isInsideERK9btVector3f
Wja:_luaK_infix
QR:__ZN16btCollisionWorld9serializeEP12btSerializer
ysa:__ZN12dmHttpClientL12HandleHeaderEPvPKcS2_
kQ:__ZN16btDbvtBroadphase8aabbTestERK9btVector3S2_R24btBroadphaseAabbCallback
xJa:_decode_residue
BH:__ZN10dmGraphics20NewVertexDeclarationEPNS_7ContextEPNS_13VertexElementEjj
KYa:_chachapoly_pad_aad
XYa:_poly1305_compute_mac
sU:__ZN22btBvhTriangleMeshShape14performRaycastEP18btTriangleCallbackRK9btVector3S4_
bu:__ZN10dmResource20MountArchiveInternalEPKcS1_S1_PPN17dmResourceArchive21ArchiveIndexContainerEPPv
OQ:__ZN28btHashedOverlappingPairCache26getOverlappingPairArrayPtrEv
BU:__ZNK14btCapsuleShape21calculateLocalInertiaEfR9btVector3
L0:__ZN9b2ContactC2EP9b2FixtureiS1_i
yga:_luaG_aritherror
pD:__ZN12dmGameSystem21ResTextureSetRecreateERKN10dmResource22ResourceRecreateParamsE
_Pa:_mbedtls_x509_crt_check_extended_key_usage
aD:__ZN12dmGameSystem17ResSpriteRecreateERKN10dmResource22ResourceRecreateParamsE
oya:_VL4
G2a:dynCall_dii
F1:__ZN13b2PulleyJointD0Ev
jH:__ZN10dmGraphics14GetWindowWidthEPNS_7ContextE
zr:__ZN5dmDDF11InputBuffer11ReadFixed32EPj
_z:__ZN12dmGameSystemL29CompSpriteGetConstantCallbackEPvyPPN8dmRender8ConstantE
hYa:_mbedtls_camellia_free
Cia:_luaV_execute
Fya:_FilterLoop24
Gya:_FilterLoop26
Xaa:__ZN8dmScript12CheckMatrix4EP9lua_Statei
zM:__ZN9dmPhysics12GetGravity3DEPNS_7World3DE
PSa:_camellia_ctx_free
z0:__ZN20b2SeparationFunction10InitializeEPK14b2SimplexCachePK15b2DistanceProxyRK7b2SweepS5_S8_f
q2a:___uremdi3
su:__ZN12dmGameSystem13OnWindowFocusEb
Cn:__ZN12dmGameObject17AcquireInputFocusEPNS_10CollectionEPNS_8InstanceE
Qia:_luaL_checkudata
Ye:_emscripten_glRenderbufferStorageMultisample
xp:__ZN12dmGameObject23Script_CancelAnimationsEP9lua_State
f7a:_emscripten_glUniform1iv__wrapper
C1a:__ZNK10__cxxabiv116__shim_type_info5noop1Ev
Vla:_math_ceil
YYa:_emscripten_GetProcAddress
ro:__ZN12dmGameObject8SetScaleEPNS_8InstanceEf
hV:__ZN17btConvexHullShapeD2Ev
gXa:_ssl_write_encrypted_pms
xta:__ZN12dmMemProfile8FinalizeEv
Pt:__ZN10dmResourceL14RemoveChildrenEPNS_17ResourcePreloaderEPNS_14PreloadRequestE
LZa:_isdigit
dB:__ZN12dmGameSystem25ResDisplayProfilesDestroyERKN10dmResource21ResourceDestroyParamsE
Yd:_emscripten_glGetFloatv
E:Math_tan
C2:__ZN15b2CircleContact7DestroyEP9b2ContactP16b2BlockAllocator
Va:invoke_viiiiiii
QK:__ZN9dmPhysics30ProcessRayCastResultCallback2DD0Ev
QE:__ZN12dmGameSystem27EmitterStateChangedCallbackEjyN10dmParticle12EmitterStateEPv
xi:_glfwOpenWindowHint
cKa:_DefaultSoundDevice
Ila:_f_lines
PNa:_mbedtls_ssl_send_flight_completed
jy:__ZN12dmGameSystem18CompModelOnMessageERKN12dmGameObject24ComponentOnMessageParamsE
lOa:_ssl_buffer_make_space
AZa:___dup3
dg:_emscripten_glVertexAttribDivisor
mda:_socket_destroy
k9:__ZN8dmScript6GetURLEP9lua_StatePN9dmMessage3URLE
iv:__ZN12dmGameSystem25CompCollisionObjectCreateERKN12dmGameObject21ComponentCreateParamsE
xz:__ZN12dmGameSystem22CompSpineModelOnReloadERKN12dmGameObject23ComponentOnReloadParamsE
y2:__ZN24b2ChainAndPolygonContact7DestroyEP9b2ContactP16b2BlockAllocator
X3a:_emscripten_glGetError__wrapper
RTa:_ecdsa_sign_det_restartable
K8a:_emscripten_glVertexAttribIPointer__wrapper
oBa:__ZN5dmGui12ClearLayoutsEPNS_5SceneE
vw:__ZN12dmGameSystem14CompGuiDestroyERKN12dmGameObject22ComponentDestroyParamsE
eZa:_posix_memalign
eSa:_mbedtls_cipher_get_iv_size
SM:__ZN9dmPhysics11DebugDraw2D13DrawTransformERK11b2Transform
Lxa:_ApplyAlphaMultiply
Zq:__ZN12dmGameObject21CompScriptSetPropertyERKNS_26ComponentSetPropertyParamsE
Jsa:__ZL22stbi__YCbCr_to_RGB_rowPhPKhS1_S1_ii
Bya:_HE8uv
CO:__ZN23btDiscreteDynamicsWorld14updateVehiclesEf
T7a:_emscripten_glUniform3i__wrapper
KWa:_pem_des_decrypt
Wf:_emscripten_glValidateProgram
sya:_TM16
T3:__ZN8dmRender6LayoutINS_13LayoutMetricsEEEjPKcfPNS_8TextLineEtPfT_
$aa:__ZN8dmScriptL11Matrix4_mulEP9lua_State
jaa:__ZN8dmScript8IsVectorEP9lua_Statei
m6a:_emscripten_glDeleteVertexArrays__wrapper
wu:__GLOBAL__sub_I_comp_camera_cpp
P8:__ZN8dmScript11OnHttpErrorEPvi
zMa:_mbedtls_sha1_finish_ret
iK:__ZN10dmGraphicsL16OpenGLSetTextureEPNS_7TextureERKNS_13TextureParamsE
dxa:_EmitFancyRGB
U6a:_emscripten_glGetTexParameterfv__wrapper
URa:_get_one_and_zeros_padding
Ys:__ZN10dmResource22VerifyResourcesBundledEPNS_16SResourceFactoryEPNS_8ManifestE
kpa:__ZN10dmParticle15DeletePrototypeEPNS_9PrototypeE
tV:__ZNK17btConvexHullShape7getEdgeEiR9btVector3S1_
Jpa:__ZN5dmRig12GetAnimationEPNS_11RigInstanceE
uaa:__ZN8dmScriptL11Quat_FromToEP9lua_State
HKa:_mbedtls_internal_md5_process
ICa:__ZN5dmGui11GetNodeTextEPNS_5SceneEj
xKa:_mbedtls_entropy_add_source
py:__ZN12dmGameSystem24CompModelGetNodeInstanceEPNS_14ModelComponentEj
NDa:__ZN5dmGui14GetNodeXAnchorEPNS_5SceneEj
Y_:__ZNK15b2RevoluteJoint13GetUpperLimitEv
yc:_emscripten_glBlendFunc
hD:__ZN12dmGameSystem16ResTextureCreateERKN10dmResource20ResourceCreateParamsE
kX:__ZN22btVoronoiSimplexSolver14backup_closestER9btVector3
R4a:b28
uO:__ZN23btDiscreteDynamicsWorld19integrateTransformsEf
zI:__ZN10dmGraphics13EnableTextureEPNS_7ContextEjPNS_7TextureE
Lu:__ZN12dmGameSystem27CompCollectionFactoryUpdateERKN12dmGameObject22ComponentsUpdateParamsERNS0_22ComponentsUpdateResultE
VMa:_mbedtls_net_free
XI:__ZN10dmGraphicsL19OpenGLSetWindowSizeEPNS_7ContextEjj
NKa:_mbedtls_pk_info_from_type
IVa:_mbedtls_md_hmac_starts
ii:_glfwGetJoystickDeviceId
Fka:_luaB_getmetatable
mR:__ZN21btCollisionDispatcher14needsCollisionEP17btCollisionObjectS1_
wra:_dmHashString32
v5:__ZN8dmRender24RenderScript_SetViewportEP9lua_State
bpa:__ZN10dmParticle14SetScaleAlongZEPNS_7ContextEjb
CWa:_oid_grp_id_from_asn1
wY:__ZN23btConvexConvexAlgorithm10CreateFuncC2EP22btVoronoiSimplexSolverP30btConvexPenetrationDepthSolver
AY:__ZN31btConvexPlaneCollisionAlgorithm21calculateTimeOfImpactEP17btCollisionObjectS1_RK16btDispatcherInfoP16btManifoldResult
Rw:__ZN12dmGameSystem25GuiGetTextMetricsCallbackEPKvPKcfbffPN5dmGui11TextMetricsE
T1:__ZN11b2WeldJoint24SolveVelocityConstraintsERK12b2SolverData
XLa:_mgf_mask
l0:__ZN12b2BroadPhase12DestroyProxyEi
V6a:_emscripten_glGetTexParameteriv__wrapper
bBa:__ZN5dmGui23SetSceneAdjustReferenceEPNS_5SceneENS_15AdjustReferenceE
RMa:_mbedtls_net_init
Ek:FUNCTION_TABLE_viiiiiiii
p3a:dynCall_vii
E9:__ZN8dmScript14Sys_GetIfaddrsEP9lua_State
ZTa:_mbedtls_ecdsa_free
bS:__ZZN16btCollisionWorld13rayTestSingleERK11btTransformS2_P17btCollisionObjectPK16btCollisionShapeS2_RNS_17RayResultCallbackEEN29BridgeTriangleRaycastCallbackD0Ev
w$a:___pthread_self_145
WYa:_mbedtls_poly1305_finish
nPa:_mbedtls_ssl_handshake_step
Tda:_buffer_init
Ssa:__ZL26stbi__create_png_image_rawP9stbi__pngPhjijjii
Waa:__ZN8dmScriptL10MulPerElemEP9lua_State
sEa:__ZN5dmGui10LuaGetNodeEP9lua_State
aga:_lua_dump
Ip:__ZN12dmGameObjectL25ScriptInstanceGetUserDataEP9lua_State
sVa:_mbedtls_gcm_free
rL:__ZN9dmPhysics22DeleteCollisionShape2DEPv
Ju:__ZN12dmGameSystem28CompCollectionFactoryDestroyERKN12dmGameObject22ComponentDestroyParamsE
b0:__ZN21b2WorldRayCastWrapper15RayCastCallbackERK14b2RayCastInputi
_fa:_f_call
dl:__ZN8dmEngineL11PerformStepEPv
fK:__ZN10dmGraphicsL30OpenGLIsTextureFormatSupportedEPNS_7ContextENS_13TextureFormatE
LN:__ZN35btSequentialImpulseConstraintSolver22setupContactConstraintER18btSolverConstraintP17btCollisionObjectS3_R15btManifoldPointRK19btContactSolverInfoR9btVector3RfSB_SA_SA_
lF:__ZN12dmGameSystem21ScriptPhysicsFinalizeERKNS_16ScriptLibContextE
bia:_luaH_next
wxa:_VP8LDelete
k:STACKTOP
qBa:__ZN5dmGui5SceneD2Ev
kE:__ZN12dmGameSystem26CollectionFactoryComp_LoadEP9lua_State
TI:__ZN10dmGraphicsL14OpenGLGetWidthEPNS_7ContextE
OLa:_mbedtls_rsa_get_len
_ja:_luaX_init
F1a:__ZNK10__cxxabiv117__class_type_info16search_above_dstEPNS_19__dynamic_cast_infoEPKvS4_ib
Jk:stackAlloc
pya:_HD4
lG:__ZN12dmGameSystemL15TileMap_GetTileEP9lua_State
u:tempBigIntS
kk:FUNCTION_TABLE_vifff
Hta:__ZN9dmMessage11HasMessagesEy
Sh:_glShaderSource
Jua:__ZN8dmSocket12SelectorZeroEPNS_8SelectorE
wZa:_tolower
tq:__GLOBAL__sub_I_lua_ddf_cpp
H3:__ZN8dmRender7FontMapD2Ev
Lra:_dmHashReverseSafe64
MU:__ZNK16btCollisionShape20getAngularMotionDiscEv
__:__ZNK11b2RopeJoint10GetAnchorAEv
f4a:_emscripten_glIsVertexArray__wrapper
tF:__ZN12dmGameSystem22ScriptResourceFinalizeERKNS_16ScriptLibContextE
ZV:__ZN13btSphereShape9setMarginEf
Sd:_emscripten_glGetAttachedShaders
AS:__ZN21btSingleSweepCallback7processEPK17btBroadphaseProxy
cia:_luaH_resizearray
nO:__ZNK23btDiscreteDynamicsWorld12getWorldTypeEv
Ln:__ZN12dmGameObject13GetIdentifierEPNS_8InstanceE
mu:__ZN12dmGameSystem22RegisterComponentTypesEPN10dmResource16SResourceFactoryEPN12dmGameObject8RegisterEPN8dmRender13RenderContextEPNS_14PhysicsContextEPNS_17ParticleFXContextEPNS_10GuiContextEPNS_13SpriteContextEPNS_22CollectionProxyContextEPNS_14FactoryContextEPNS_24CollectionFactoryContextEPNS_17SpineModelContextEPNS_12ModelContextEPNS_11MeshContextEPNS_12LabelContextEPNS_14TilemapContextEPNS_12SoundContextE
oNa:_ssl_read_memory
Tpa:__ZNK8dmRigDDF10EventTrackUt_ixEj
Dfa:_lua_pushlstring
l5:__ZN8dmRender26EnableRenderObjectConstantEPNS_12RenderObjectEyRKN10Vectormath3Aos7Vector4E
mDa:__ZN5dmGui11GetNodeFontEPNS_5SceneEj
OH:__ZN10dmGraphics21ReloadFragmentProgramEmPNS_10ShaderDesc6ShaderE
zea:_opt_set_tcp_nodelay
fTa:_des3_set2key
qca:_tcp_create
Cha:_close_func
XK:__ZN9dmPhysics15ContactListener9PostSolveEP9b2ContactPK16b2ContactImpulse
jDa:__ZN5dmGuiL17FindBoneChildNodeEPNS_5SceneEPNS_12InternalNodeERj
N8a:_emscripten_glUniform4ui__wrapper
ys:__ZN10dmResource16BytesToHexStringEPKhjPcj
Rm:__ZN12dmGameObject16AttachCollectionEPNS_10CollectionEPKcPN10dmResource16SResourceFactoryEPNS_8RegisterEPNS_16CollectionHandleE
nba:__ZN8dmScriptL11Vector4_mulEP9lua_State
jQa:_x509_name_cmp
AB:__ZN12dmGameSystem19ResDestroyGuiScriptERKN10dmResource21ResourceDestroyParamsE
mka:_ipairsaux
UZa:_fmod
sCa:__ZN5dmGui11GetNodeByIdEPNS_5SceneEy
RS:__ZN34btSphereTriangleCollisionAlgorithm10CreateFuncD0Ev
HD:__ZN12dmGameSystem14GetStreamValueItEEdPvi
Xha:_f_luaopen
EF:__ZN12dmGameSystemL18Sound_GetGroupGainEP9lua_State
Qya:_VP8LConvertBGRAToRGB565_C
er:__ZN5dmDDF11LoadMessageEPKvjPKNS_10DescriptorEPPvjPj
SPa:_x509_get_subject_alt_name
PX:__Z8dBoxBox2RK9btVector3PKfS1_S1_S3_S1_RS_PfPiiP12dContactGeomiRN36btDiscreteCollisionDetectorInterface6ResultE
R0a:_inet_pton
Ki:_glfwSwapBuffers
Uaa:__ZN8dmScriptL7InverseEP9lua_State
cXa:_mbedtls_ssl_ciphersuite_cert_req_allowed
cE:__ZN12dmGameSystemL9Buffer_gcEP9lua_State
ym:__ZN11dmHashTableIyPN12dmGameObject8InstanceEE3PutEyRKS2_
s6a:_emscripten_glDrawBuffers__wrapper
FK:__ZN10dmGraphicsL14OnWindowResizeEii
kOa:_ssl_get_reassembly_buffer_size
Cw:__ZN12dmGameSystem14RenderPieNodesEPN5dmGui5SceneEPKNS0_11RenderEntryEPKN10Vectormath3Aos7Matrix4EPKfPPKNS0_12StencilScopeEjPv
Uz:__ZN12dmGameSystem16CompSpriteRenderERKN12dmGameObject22ComponentsRenderParamsE
IK:__ZN10dmGraphicsL15OnWindowIconifyEi
wJa:_codebook_decode_scalar_raw
kh:_glDeleteRenderbuffers
Hg:_gai_strerror
Vw:__ZN12dmGameSystem17CompLabelNewWorldERKN12dmGameObject23ComponentNewWorldParamsE
WT:__ZN10btBoxShapeD0Ev
aua:__GLOBAL__sub_I_profile_cpp
Lh:_glGetUniformLocation
Sc:_emscripten_glCompileShader
iOa:_mbedtls_ssl_handle_message_type
g4:__ZN8dmRender26GetMaterialProgramConstantEPNS_8MaterialEyRNS_8ConstantE
Aka:_luaB_collectgarbage
WGa:__ZN5dmGuiL23GuiScriptInstanceGetURLEP9lua_State
oK:__ZN10dmGraphicsL29OpenGLGetOriginalTextureWidthEPNS_7TextureE
YN:__ZN23btDiscreteDynamicsWorld21removeCollisionObjectEP17btCollisionObject
F$a:_feof
WRa:_get_zeros_and_len_padding
fU:__ZNK10btBoxShape37localGetSupportingVertexWithoutMarginERK9btVector3
NNa:_ssl_free_buffered_record
QEa:__ZN5dmGui26SetDefaultNewContextParamsEPNS_16NewContextParamsE
TBa:__ZNSt3__26__sortIRN5dmGui19RenderEntrySortPredEPNS1_11RenderEntryEEEvT0_S6_T_
_b:_dmScriptHttpRequestAsync
Raa:__ZN8dmScriptL4ConjEP9lua_State
ar:__ZN11dmHashTableIyPKN5dmDDF10DescriptorEE3PutEyRKS3_
Xxa:_VFilter16
dG:__ZN12dmGameSystem19SpriteComp_SetScaleEP9lua_State
lr:__ZN5dmDDF9SkipFieldEPNS_11InputBufferEj
JI:__ZN10dmGraphicsL19OpenGLDeleteContextEPNS_7ContextE
dF:__ZN12dmGameSystemL29Physics_GetJointReactionForceEP9lua_State
nN:__ZN9dmPhysics16OverlapCacheInitEPNS_12OverlapCacheE
QA:__ZN12dmGameSystem27ResCollectionFactoryDestroyERKN10dmResource21ResourceDestroyParamsE
E5:__ZN8dmRender33RenderScript_GetRenderTargetWidthEP9lua_State
X_:__ZNK15b2RevoluteJoint13GetLowerLimitEv
lC:__ZN12dmGameSystem14ResModelCreateERKN10dmResource20ResourceCreateParamsE
V7:__ZN8dmScriptL13PCallInternalEP9lua_Stateiii
CH:__ZN10dmGraphics15SetStreamOffsetEPNS_17VertexDeclarationEjt
KQ:__ZN28btHashedOverlappingPairCacheD0Ev
_ha:_luaS_resize
RKa:_pk_hashlen_helper
q0:__ZN13b2DynamicTreeD2Ev
Rs:__ZN10dmResource23ReleaseBuiltinsManifestEPNS_16SResourceFactoryE
QU:__ZNK16btCollisionShape20serializeSingleShapeEP12btSerializer
ina:_writer
qIa:_NullSoundDevice
rIa:__GLOBAL__sub_I_sound_cpp
Dr:__ZN5dmDDF11InputBuffer9ReadInt32EPi
qFa:__ZN5dmGuiL18LuaGetClippingModeEP9lua_State
qq:__ZN12dmGameObject16ResScriptDestroyERKN10dmResource21ResourceDestroyParamsE
B_a:___mo_lookup
FNa:_ssl_get_current_mtu
H9:__ZN8dmScriptL23Sys_SetConnectivityHostEP9lua_State
vYa:_mbedtls_ccm_auth_decrypt
uC:__ZN12dmGameSystem21ResParticleFXRecreateERKN10dmResource22ResourceRecreateParamsE
B:Math_pow
h2:__ZN8b2Island8SolveTOIERK10b2TimeStepii
YS:__ZN28btCompoundCollisionAlgorithm17SwappedCreateFunc24CreateCollisionAlgorithmER36btCollisionAlgorithmConstructionInfoP17btCollisionObjectS4_
Lp:__ZN12dmGameObjectL32ScriptGetInstanceContextTableRefEP9lua_State
coa:__ZN5dmHID6UpdateEPNS_7ContextE
Kd:_emscripten_glGenVertexArrays
tg:_emscripten_glVertexAttribI4sv
uL:__ZN9dmPhysicsL18TransformCopyShapeEPNS_9Context2DEPK7b2ShapeRKN10Vectormath3Aos7Vector3ERKNS6_4QuatEf
LNa:_ssl_flight_free
Aea:_opt_get_tcp_nodelay
V_a:_strcasecmp
tD:__ZN12dmGameSystem17ResTileGridCreateERKN10dmResource20ResourceCreateParamsE
rT:__ZN25btSimulationIslandManagerD2Ev
dKa:__ZN12dmSoundCodec3NewEPKNS_21NewCodecContextParamsE
aKa:__ZN10dmDeviceJS13DeviceJSStartEPv
tU:__ZZN22btBvhTriangleMeshShape14performRaycastEP18btTriangleCallbackRK9btVector3S4_EN21MyNodeOverlapCallbackD0Ev
nK:__ZN10dmGraphicsL22OpenGLGetTextureHeightEPNS_7TextureE
Hpa:__ZN5dmRig15SetPlaybackRateEPNS_11RigInstanceEf
wO:__ZN23btDiscreteDynamicsWorld16solveConstraintsER19btContactSolverInfo
jGa:__ZN5dmGuiL17LuaSetRenderOrderEP9lua_State
Pda:_auxiliar_checkclass
B0:__ZNK20b2SeparationFunction8EvaluateEiif
da:invoke_fiiiiiiiiiii
L4:__ZN8dmRender16GetScriptContextEPNS_13RenderContextE
P4:__ZN8dmRender16RenderListSubmitEPNS_13RenderContextEPNS_15RenderListEntryES3_
GH:__ZN10dmGraphics21HashVertexDeclarationEP11HashState32PNS_17VertexDeclarationE
Oya:_VP8LConvertBGRAToRGBA_C
wWa:_oid_x509_ext_from_asn1
Roa:__ZN10dmParticle11ApplyVortexER7dmArrayINS_8ParticleEEPNS_8PropertyERKN10Vectormath3Aos6Point3ERKNS7_4QuatEfff
Zg:_glClearColor
a5a:_emscripten_glCompileShader__wrapper
x5a:_emscripten_glActiveTexture__wrapper
Nd:_emscripten_glGetActiveUniform
Bj:emscriptenWebGLGetVertexAttrib
cLa:_rsa_decrypt_wrap
qja:_luaL_openlibs
kJa:_AudioDecoderStbVorbis
Iy:__ZN12dmGameSystem11SetPropertyEyRKN12dmGameObject11PropertyVarERN10Vectormath3Aos7Vector4ERKNS_11PropVector4E
DTa:_ecdh_setup_internal
rya:_DC16
$K:__ZN9dmPhysics11GetSocket2DEPNS_9Context2DE
xW:__ZZN33btMinkowskiPenetrationDepthSolver12calcPenDepthER22btVoronoiSimplexSolverPK13btConvexShapeS4_RK11btTransformS7_R9btVector3S9_S9_P12btIDebugDrawP12btStackAllocEN20btIntermediateResult20setShapeIdentifiersAEii
Rc:_emscripten_glColorPointer
k4:__ZN8dmRender27GetMaterialConstantLocationEPNS_8MaterialEy
P_a:_a_ctz_l
Qta:__ZN7dmMutex6DeleteEPNS_5MutexE
Dl:__ZN3MapD0Ev
GV:__ZN13btConvexShapeD0Ev
kqa:__ZN11dmArrayUtil11SetCapacityEjjPmS0_S0_
cQ:__ZN15btNullPairCache20sortOverlappingPairsEP12btDispatcher
Ava:__ZN6dmUtf86ToUtf8EtPc
HVa:_mbedtls_md
UQ:__ZN28btHashedOverlappingPairCache24setOverlapFilterCallbackEP23btOverlapFilterCallback
bf:_emscripten_glShaderSource
fl:__ZN8dmEngine9RunResult4FreeEv
$Ya:_calloc
gK:__ZN10dmGraphicsL16OpenGLNewTextureEPNS_7ContextERKNS_21TextureCreationParamsE
aFa:__ZN5dmGui15LuaGetSpineSkinEP9lua_State
jX:__ZN22btVoronoiSimplexSolver9inSimplexERK9btVector3
_m:__ZNSt3__27__sort4IRN12dmGameObject21ComponentTypeSortPredEPtEEjT0_S5_S5_S5_T_
rJa:_start_page
qHa:__ZN7dmCrash21GetBacktraceAddrCountEi
LBa:__ZN5dmGui9SetLayoutEPNS_5SceneEyPFvS1_jPKvE
Ah:_glGenRenderbuffers
sv:__ZN12dmGameSystemL9BroadCastIN12dmPhysicsDDF20ContactPointResponseEEEvPT_PN12dmGameObject8InstanceEyt
m_a:_strerror
GWa:_mbedtls_pem_init
tsa:__ZN12dmHttpClientL7SendAllEPNS_8ResponseEPKci
U1:__ZN11b2WeldJoint24SolvePositionConstraintsERK12b2SolverData
yq:__ZN12dmGameObject19CompAnimDeleteWorldERKNS_26ComponentDeleteWorldParamsE
P5a:_emscripten_glGetIntegerv__wrapper
mLa:_eckey_check_pair
pra:__ZN11dmHashTableIy16ReverseHashEntryE11SetCapacityEjj
Ts:__ZN10dmResourceL8DispatchEPN9dmMessage7MessageEPv
iXa:_ssl_parse_server_psk_hint
SB:__ZN12dmGameSystem11SetMaterialEPN8dmRender8MaterialEPN11dmRenderDDF12MaterialDescEPNS_17MaterialResourcesE
F4:__ZN8dmRender12RenderObject14ClearConstantsEv
Iaa:__ZN8dmScriptL17Matrix4_RotationZEP9lua_State
ATa:_mbedtls_ecdh_init
RT:__ZN36btDiscreteCollisionDetectorInterfaceD2Ev
tS:__ZZN16btCollisionWorld17objectQuerySingleEPK13btConvexShapeRK11btTransformS5_P17btCollisionObjectPK16btCollisionShapeS5_RNS_20ConvexResultCallbackEfEN14LocalInfoAdder15addSingleResultERNS_17LocalConvexResultEb
Fha:_check_match
SFa:__ZN5dmGuiL12LuaGetHeightEP9lua_State
Ria:_luaL_checkstack
$u:__ZN12dmGameSystem29CompCollectionProxyPostUpdateERKN12dmGameObject26ComponentsPostUpdateParamsE
_r:__ZN5dmDDF11LoadContext13AllocRepeatedEPKNS_15FieldDescriptorEi
hra:__Z8dmStrTokPcPKcPS_
BV:__ZN21btConvexInternalShape15setLocalScalingERK9btVector3
HT:__ZN34btSphereTriangleCollisionAlgorithmD0Ev
Bu:__ZN12dmGameSystem21CompCameraAddToUpdateERKN12dmGameObject26ComponentAddToUpdateParamsE
hTa:_mbedtls_des3_set3key_enc
lTa:_mbedtls_des_crypt_cbc
WX:__ZN28btCompoundCollisionAlgorithm22getAllContactManifoldsER20btAlignedObjectArrayIP20btPersistentManifoldE
c_:__ZNK7b2Mat337Solve33ERK6b2Vec3
gd:_emscripten_glDepthFunc
Ufa:_lua_rawset
$0a:_inet_ntoa
aU:__ZN10btBoxShape9setMarginEf
o0:__ZN12b2BroadPhase13QueryCallbackEi
vC:__ZN12dmGameSystem24ResourceReloadedCallbackERKN10dmResource22ResourceReloadedParamsE
oWa:_sha384_wrap
qF:__ZN12dmGameSystemL9GetBufferEP9lua_State
bla:_db_getlocal
Yra:__ZN11dmHttpCache3EndEPNS_5CacheEPNS_12CacheCreatorE
gM:__ZN9dmPhysics22DeleteCollisionShape3DEPv
Nu:__ZN12dmGameSystem25CompCollectionFactoryLoadEPN12dmGameObject16CollectionHandleEPNS_26CollectionFactoryComponentE
XNa:_ssl_hs_is_proper_fragment
XW:__ZNK15btTriangleShape8getPlaneER9btVector3S1_i
QN:__ZN35btSequentialImpulseConstraintSolver43resolveSplitPenetrationImpulseCacheFriendlyER11btRigidBodyS1_RK18btSolverConstraint
wh:_glFramebufferRenderbuffer
iJa:__ZN12dmSoundCodec21StbVorbisSkipInStreamEPvjPj
oa:invoke_iiiiiiiii
hVa:_ecp_mpi_load
JBa:__ZN5dmGui14GetLayoutIndexEPNS_5SceneEy
Gv:__ZN12dmGameSystem7RayCastEPvRKN9dmPhysics14RayCastRequestERNS1_15RayCastResponseE
eG:__ZN12dmGameSystem23SpriteComp_PlayFlipBookEP9lua_State
jc:_emscripten_glBeginConditionalRender
ioa:__ZN7dmInput10NewContextERKNS_16NewContextParamsE
oca:_global_create6
f1:__ZN25b2PolygonAndCircleContact6CreateEP9b2FixtureiS1_iP16b2BlockAllocator
jAa:_Sync
Ffa:_lua_pushvfstring
ooa:__ZN7dmInput10SetBindingEPNS_7BindingEPN10dmInputDDF12InputBindingE
HZ:__ZNK14b2PolygonShape13GetChildCountEv
a0:__ZNK13b2DynamicTree7RayCastI21b2WorldRayCastWrapperEEvPT_RK14b2RayCastInput
bP:__ZN11btRigidBody18saveKinematicStateEf
OJ:__ZN10dmGraphicsL17OpenGLSetViewportEPNS_7ContextEiiii
D6a:_emscripten_glVertexAttribI1uiv__wrapper
cJ:__ZN10dmGraphicsL21OpenGLNewVertexBufferEPNS_7ContextEjPKvNS_11BufferUsageE
jKa:__ZN12dmSoundCodec5ResetEPNS_12CodecContextEPNS_7DecoderE
$Ha:__ZN12dmLiveUpdate8FinalizeEv
ufa:_lua_tolstring
BCa:__ZN5dmGui15SetNodePositionEPNS_5SceneEjRKN10Vectormath3Aos6Point3E
Qe:_emscripten_glLoadMatrixf
tOa:_mbedtls_ssl_in_hdr_len
_7a:_emscripten_glGetShaderInfoLog__wrapper
E0a:___bswap_16
pDa:__ZN5dmGui11SetNodeFontEPNS_5SceneEjPKc
v8a:_emscripten_glUniform3ui__wrapper
_Ra:_mbedtls_cipher_setkey
HNa:_mbedtls_ssl_get_record_expansion
Yx:__ZN12dmGameSystemL16DestroyComponentEPNS_10ModelWorldEj
eAa:_VP8LHtreeGroupsFree
Ho:__ZN12dmGameObject23UnloadPropertyResourcesEPN10dmResource16SResourceFactoryER7dmArrayIPvE
_Qa:_mbedtls_clz
i1:__ZN16b2PolygonContactD0Ev
gMa:_mbedtls_rsa_rsassa_pkcs1_v15_sign
Nta:__ZN9dmMessageL15ConsumeCallbackEPNS_7MessageEPv
Ja:invoke_viififfi
W4a:_emscripten_glClearColor__wrapper
NMa:_mbedtls_internal_sha512_process
wg:_emscripten_glVertexAttribI4uiv
Q2a:dynCall_i
_l:__ZN11micropather11MicroPather5SolveEPvS1_PNS_8MPVectorIS1_EEPf
PTa:_ecdsa_sign_restartable
tFa:__ZN5dmGuiL21LuaSetClippingVisibleEP9lua_State
OPa:_x509_get_crt_ext
qRa:_mbedtls_mpi_div_mpi
YF:__ZN12dmGameSystem23SpineComp_ResetConstantEP9lua_State
JP:__ZN20btAxisSweep3InternalItE9sortMinUpEitP12btDispatcherb
eA:__ZN12dmGameSystem20GetTileGridCellCoordEPKNS_17TileGridComponentEiiRiS3_
gB:__ZN12dmGameSystem17ResEmitterDestroyERKN10dmResource21ResourceDestroyParamsE
e$:__ZN11b2RopeJoint23InitVelocityConstraintsERK12b2SolverData
Xe:_emscripten_glRenderbufferStorage
Taa:__ZN8dmScriptL7ProjectEP9lua_State
Jha:_adjust_assign
Wa:invoke_viiiiiiii
rO:__ZN23btDiscreteDynamicsWorld12addCharacterEP17btActionInterface
QVa:_md5_update_wrap
Ei:_glfwSetWindowCloseCallback
AQ:__ZN6btDbvt8ICollide9AllLeavesEPK10btDbvtNode
LAa:_glfwGetTouch
WO:__ZNK11btRigidBody21serializeSingleObjectEP12btSerializer
_n:__ZN12dmGameObject11GetRotationEPNS_8InstanceE
Uba:_bit_tobit
pta:__Z13dmLogInternal13dmLogSeverityPKcS1_z
ON:__ZN35btSequentialImpulseConstraintSolver23setupFrictionConstraintER18btSolverConstraintRK9btVector3P11btRigidBodyS6_R15btManifoldPointS4_S4_P17btCollisionObjectSA_fff
VU:__ZN15btCompoundShape15setLocalScalingERK9btVector3
w5:__ZN8dmRender25RenderScript_RenderTargetEP9lua_State
dGa:__ZN5dmGuiL8LuaCloneEP9lua_State
Sxa:_TransformTwo
c4a:_emscripten_glIsShader__wrapper
e7a:_emscripten_glUniform2i__wrapper
g7:__ZN8dmScript9SetGlobalEP9lua_StatePKc
TUa:_ecp_check_pubkey_sw
IF:__ZN12dmGameSystemL10Sound_PlayEP9lua_State
qXa:_ssl_validate_ciphersuite
or:__ZN5dmDDF13DoSaveMessageEPKvPKNS_10DescriptorEPvPFbS5_S1_jE
bL:__ZN9dmPhysics13DeleteWorld2DEPNS_9Context2DEPNS_7World2DE
j8a:_emscripten_glViewport__wrapper
rp:__ZN12dmGameObject24Script_GetWorldTransformEP9lua_State
rH:__ZN10dmGraphics15NewVertexBufferEPNS_7ContextEjPKvNS_11BufferUsageE
bDa:__ZN5dmGui17SetNodeAdjustModeEPNS_5SceneEjNS_10AdjustModeE
Tua:__ZN12dmStringPool6DeleteEPNS_4PoolE
Nxa:_DispatchAlpha
H5:__ZN8dmRender17RenderScript_DrawEP9lua_State
Yga:_luaF_freeproto
hOa:_ssl_get_next_record
i8a:_emscripten_glDrawArraysInstanced__wrapper
$8a:_emscripten_glCopyTexImage2D__wrapper
Pva:_WebPRescalerImport
cK:__ZN10dmGraphicsL28OpenGLGetRenderTargetTextureEPNS_12RenderTargetENS_10BufferTypeE
hva:__ZN5dmSys13GetEngineInfoEPNS_10EngineInfoE
p5a:_emscripten_glDisable__wrapper
jea:_inet_pushresolved
Ska:_luaB_tostring
YC:__ZN12dmGameSystem16AcquireResourcesEPN10dmResource16SResourceFactoryEPNS_14SpriteResourceEPKc
kua:__ZN9dmProfile14AllocateSampleEv
nb:___syscall122
wPa:_mbedtls_ssl_close_notify
Rda:_auxiliar_setclass
Kn:__ZN12dmGameObject13SetIdentifierEPNS_10CollectionEPNS_8InstanceEPKc
ZSa:_mbedtls_des_init
QTa:_derive_mpi
SWa:_mbedtls_ssl_ciphersuite_uses_ec
Pf:_emscripten_glUniform4iv
INa:_mbedtls_cipher_get_block_size
rw:__ZN12dmGameSystem13CompGuiCreateERKN12dmGameObject21ComponentCreateParamsE
HE:__GLOBAL__sub_I_script_model_cpp
Usa:__ZL21stbi__zhuffman_decodeP10stbi__zbufP14stbi__zhuffman
nl:__ZN10dmProfiler14ToggleProfilerEv
A3:__ZN8dmRender24GetOptimalDisplayProfileEPNS_15DisplayProfilesEjjjPK7dmArrayIyE
oqa:__ZN8dmBuffer14CalcStructSizeEjPKNS_17StreamDeclarationEPjS3_
PUa:_ecp_randomize_mxz
VNa:_ssl_get_hs_total_len
R$a:___ftello
kS:__ZN17DebugDrawcallback28internalProcessTriangleIndexEP9btVector3ii
Wga:_luaF_close
qua:__ZN8dmSocket12IsSocketIPv4Ei
B4a:___cxa_pure_virtual__wrapper
gsa:__ZN17dmHttpCacheVerify11VerifyCacheEPN11dmHttpCache5CacheEPN5dmURI5PartsEPN5dmDNS7ChannelEy
Sl:__ZN11micropather11MicroPatherC2EPNS_5GraphEjjb
RY:__ZN12gjkepa2_impl3EPA6expandEjPNS_3GJK3sSVEPNS0_5sFaceEjRNS0_8sHorizonE
sqa:__ZN8dmBuffer6CreateEjPKNS_17StreamDeclarationEhPj
rx:__ZN12dmGameSystem16CompLightDestroyERKN12dmGameObject22ComponentDestroyParamsE
mQa:_x509_crt_find_parent_in
hO:__ZN23btDiscreteDynamicsWorld15removeRigidBodyEP11btRigidBody
Dw:__ZN12dmGameSystem11RenderNodesEPN5dmGui5SceneEPKNS0_11RenderEntryEPKN10Vectormath3Aos7Matrix4EPKfPPKNS0_12StencilScopeEjPv
tka:_luaB_corunning
d$a:_twobyte_strstr
tLa:_ecdsa_can_do
bxa:_EmitRescaledAlphaYUV
R1a:__ZNSt9type_infoD2Ev
x0a:_socket
_1a:__ZNK10__cxxabiv121__vmi_class_type_info27has_unambiguous_public_baseEPNS_19__dynamic_cast_infoEPvi
Mn:__ZN12dmGameObject21GetAbsoluteIdentifierEPNS_8InstanceEPKcj
Hj:FUNCTION_TABLE_fiifii
vg:_emscripten_glVertexAttribI4ui
ova:__ZN8dmThreadL16ThreadStartProxyEPv
$W:__ZN28btTriangleConvexcastCallbackC2EPK13btConvexShapeRK11btTransformS5_S5_f
mx:__ZN12dmGameSystem20CompLabelSetPropertyERKN12dmGameObject26ComponentSetPropertyParamsE
Fo:__ZN12dmGameObject11GetPropertyEPNS_10PropertiesEyRNS_11PropertyVarE
vW:__ZN33btMinkowskiPenetrationDepthSolver24getPenetrationDirectionsEv
dU:__ZNK21btConvexInternalShape9serializeEPvP12btSerializer
P$a:_fseek
UD:__ZN12dmGameSystemL9GetStreamEP9lua_State
eT:__ZN16btEmptyAlgorithmD0Ev
ib:___map_file
ij:_pthread_key_create
$8:__ZN8dmScript12ReloadModuleEPNS_7ContextEPN8dmLuaDDF9LuaSourceEy
PGa:__ZN5dmGuiL18NodeProxy_tostringEP9lua_State
Ud:_emscripten_glGetBooleani_v
ce:_emscripten_glGetObjectParameterivARB
MDa:__ZN5dmGui16SetNodeBlendModeEPNS_5SceneEjNS_9BlendModeE
Yya:_Predictor4
Zya:_Predictor5
_ya:_Predictor6
$ya:_Predictor7
Uya:_Predictor0
Vya:_Predictor1
Wya:_Predictor2
ABa:__ZN5dmGui13AddParticlefxEPNS_5SceneEPKcPv
Dla:_g_read
aza:_Predictor8
bza:_Predictor9
mW:__ZN30btGjkEpaPenetrationDepthSolverD0Ev
hl:__ZN15dmEngineService3NewEt
Qc:_emscripten_glColorMaski
eMa:_mbedtls_rsa_pkcs1_decrypt
FVa:_mbedtls_md_update
Rna:__ZN5dmHID14GetMousePacketEPNS_7ContextEPNS_11MousePacketE
pR:__ZNK21btCollisionDispatcher15getNumManifoldsEv
lM:__ZN9dmPhysics11MotionState17setWorldTransformERK11btTransform
w0a:_getpeername
Ct:__ZN17dmResourceArchive22CreateFilesIfNotExistsEPNS_21ArchiveIndexContainerEPKc
_h:_glUniform4fv
zla:_io_tmpfile
kl:__ZN15dmEngineService14GetServicePortEt
sFa:__ZN5dmGuiL21LuaGetClippingVisibleEP9lua_State
vG:__ZN12dmGameSystemL11RunCallbackEPNS_12CallbackInfoE
DNa:_ssl_ep_len
i:DYNAMICTOP_PTR
N7:__ZN8dmScript16FinalizeInstanceEPNS_11ScriptWorldE
ra:invoke_v
Zpa:__ZN5dmRigL12PoseToMatrixERK7dmArrayIN11dmTransform9TransformEERS0_IN10Vectormath3Aos7Matrix4EE
LQ:__ZN28btHashedOverlappingPairCache18addOverlappingPairEP17btBroadphaseProxyS1_
BWa:_mbedtls_oid_get_ec_grp
KLa:_mbedtls_rsa_complete
ea:invoke_i
gx:__ZN12dmGameSystem17CompLabelOnReloadERKN12dmGameObject23ComponentOnReloadParamsE
xt:__ZN17dmResourceArchive14ShiftAndInsertEPNS_21ArchiveIndexContainerEPNS_12ArchiveIndexEPKhjiPKNS_18LiveUpdateResourceEPKNS_9EntryDataE
kv:__ZN12dmGameSystemL22SetCollisionObjectDataEPNS_14CollisionWorldEPNS_18CollisionComponentEPNS_23CollisionObjectResourceEPN12dmPhysicsDDF19CollisionObjectDescEbRN9dmPhysics19CollisionObjectDataE
lIa:__ZN12dmDeviceNull15DeviceNullQueueEPvPKsj
GO:__ZZN23btDiscreteDynamicsWorld16solveConstraintsER19btContactSolverInfoEN27InplaceSolverIslandCallbackD2Ev
DM:__ZN9dmPhysics19CollisionObjectDataC2Ev
B8a:_emscripten_glFramebufferTexture2D__wrapper
HOa:_mbedtls_pk_ec_12200
LKa:_mbedtls_pk_init
vea:_opt_meth_getoption
j$a:_strncpy
uya:_HE16
i0a:_sinh
HYa:_mbedtls_chachapoly_starts
z9:__ZN8dmScript11Sys_OpenURLEP9lua_State
lm:__ZN12dmGameObject11InputActionC2Ev
A$a:_fread
kw:__GLOBAL__sub_I_comp_gui_cpp
Q6a:_emscripten_glClearBufferfi__wrapper
AE:__ZN12dmGameSystem21ScriptFactoryRegisterERKNS_16ScriptLibContextE
BJ:__ZN10dmGraphicsL27OpenGLReloadFragmentProgramEmPNS_10ShaderDesc6ShaderE
YE:__ZN12dmGameSystem20Physics_RayCastAsyncEP9lua_State
cEa:__ZN5dmGui19CancelAnimationHashEPNS_5SceneEjy
dx:__ZN12dmGameSystem15CompLabelUpdateERKN12dmGameObject22ComponentsUpdateParamsERNS0_22ComponentsUpdateResultE
hxa:_EmitAlphaRGBA4444
Me:_emscripten_glIsVertexArray
BK:__ZN10dmGraphicsL19LogFrameBufferErrorEj
Wi:_llvm_trap
_pa:__ZN5dmRig10SetEnabledEPNS_11RigInstanceEb
xga:_luaG_concaterror
nY:__ZN23btConvexConvexAlgorithm10CreateFuncD0Ev
O2a:dynCall_fiiiiiiiiii
rZ:__ZN11b2GridShapeD0Ev
xCa:__ZN5dmGui14GetRenderOrderEPNS_5SceneE
xb:___syscall330
E3:__ZN8dmRender10NewFontMapEPN10dmGraphics7ContextERNS_13FontMapParamsE
bVa:_ecp_mod_p256k1
$X:__ZN28btCompoundCollisionAlgorithmC2ERK36btCollisionAlgorithmConstructionInfoP17btCollisionObjectS4_b
vya:_DC16NoTop
v_:__ZNK16b2PrismaticJoint13GetJointSpeedEv
WF:__ZN12dmGameSystem17SpineComp_ResetIKEP9lua_State
Wba:_bit_band
Zd:_emscripten_glGetFragDataLocation
nE:__ZN11dmHashTableIyN12dmGameObject22InstancePropertyBufferEE3PutEyRKS1_
wd:_emscripten_glEnableVertexAttribArray
aZ:__ZN7b2ShapeD2Ev
EBa:__ZN5dmGui15AllocateLayoutsEPNS_5SceneEmm
x0:__ZN13b2DynamicTree9MoveProxyEiRK6b2AABBRK6b2Vec2
_ea:_lua_checkstack
vd:_emscripten_glEnableClientState
L5:__ZN8dmRender26RenderScript_SetProjectionEP9lua_State
hj:_pthread_join
sz:__ZN12dmGameSystem20CompSpineModelUpdateERKN12dmGameObject22ComponentsUpdateParamsERNS0_22ComponentsUpdateResultE
g0:__ZN15b2ContactFilterD0Ev
oP:__ZN12btAxisSweep3C2ERK9btVector3S2_tP22btOverlappingPairCacheb
Y6a:_emscripten_glTexParameteriv__wrapper
ow:__ZN12dmGameSystem15SetNodeCallbackEPN5dmGui5SceneEjPKv
T2a:dynCall_iii
so:__ZN12dmGameObject8SetScaleEPNS_8InstanceEN10Vectormath3Aos7Vector3E
d3:__ZN15b2FrictionJointC2EPK18b2FrictionJointDef
ZIa:__ZN7dmSound25GetAndIncreasePlayCounterEv
XUa:_mbedtls_ecp_gen_privkey
LSa:_camellia_crypt_cfb128_wrap
kT:__ZN13btGhostObjectD0Ev
By:__ZN12dmGameSystemL18RenderListDispatchERKN8dmRender24RenderListDispatchParamsE_2427
jCa:__ZN5dmGui13DispatchInputEPNS_5SceneEPKNS_11InputActionEjPb
EI:__ZN10dmGraphics18RunApplicationLoopEPvPFvS0_EPFiS0_E
PW:__ZNK15btTriangleShape49batchedUnitVectorGetSupportingVertexWithoutMarginEPK9btVector3PS0_i
eD:__ZN12dmGameSystem12DestroyImageEPNS_9ImageDescE
$r:__ZN5dmDDF11LoadContext11AllocStringEi
il:__ZN15dmEngineService6DeleteEPNS_13EngineServiceE
jE:__ZN12dmGameSystem28CollectionFactoryComp_UnloadEP9lua_State
V8a:_emscripten_glReadPixels__wrapper
JY:__ZNK12gjkepa2_impl3GJK10getsupportERK9btVector3RNS0_3sSVE
Kea:_opt_get_ip6_multicast_loop
K2a:dynCall_fiii
Nka:_luaB_rawset
BA:__ZN12dmGameSystem21ResAnimationSetCreateERKN10dmResource20ResourceCreateParamsE
Ela:_read_line
A_a:___lctrans_impl
uQa:_mbedtls_aes_free
r5a:_emscripten_glCullFace__wrapper
ID:__ZN12dmGameSystem14GetStreamValueIhEEdPvi
AGa:__ZN5dmGuiL20LuaNewParticlefxNodeEP9lua_State
Gma:_getn
td:_emscripten_glDrawRangeElements
h0a:_getc
TZ:__Z10b2DistanceP16b2DistanceOutputP14b2SimplexCachePK15b2DistanceInput
Bua:__ZN8dmSocket4BindEiNS_7AddressEi
OO:__ZN23btDiscreteDynamicsWorld20serializeRigidBodiesEP12btSerializer
mja:_getS
vua:__ZN8dmSocket8FinalizeEv
MI:__ZN10dmGraphicsL18OpenGLAppBootstrapEiPPcPFPviS1_EPFvS2_EPFiS2_EPFvS2_PiS9_S9_PS1_E
WOa:_mbedtls_ssl_transform_init
y5a:_emscripten_glBlendEquation__wrapper
kja:_getF
c3:__ZN15b2FrictionJoint24SolvePositionConstraintsERK12b2SolverData
Sma:_str_find
CFa:__ZN5dmGuiL16LuaDeleteTextureEP9lua_State
ov:__ZN12dmGameSystem26CompCollisionObjectDestroyERKN12dmGameObject22ComponentDestroyParamsE
VYa:_mul64
od:_emscripten_glDrawArrays
vc:_emscripten_glBlendColor
L_:__ZN15b2RevoluteJoint23InitVelocityConstraintsERK12b2SolverData
Wk:__ZN8dmEngine4InitEPNS_6EngineEiPPc
Os:__ZN11dmHashTableImyE3PutEmRKy
qj:_signal
wCa:__ZN5dmGui10ResetNodesEPNS_5SceneE
_R:__ZZN16btCollisionWorld13rayTestSingleERK11btTransformS2_P17btCollisionObjectPK16btCollisionShapeS2_RNS_17RayResultCallbackEEN15LocalInfoAdder215addSingleResultERNS_14LocalRayResultEb
$oa:__ZN10dmParticle11SetRotationEPNS_7ContextEjRKN10Vectormath3Aos4QuatE
iq:__ZN12dmGameObject14ResLuaRecreateERKN10dmResource22ResourceRecreateParamsE
HSa:_gcm_ctx_alloc
SO:__ZN11btRigidBodyD0Ev
mqa:__ZN8dmBuffer13DeleteContextEv
Hua:__ZN8dmSocket11SelectorSetEPNS_8SelectorENS_12SelectorKindEi
sk:FUNCTION_TABLE_viifii
FKa:_mbedtls_md5_clone
mY:__ZN23btConvexConvexAlgorithm10CreateFuncD2Ev
Efa:_lua_pushstring
$J:__ZN10dmGraphicsL21OpenGLNewRenderTargetEPNS_7ContextEjPKNS_21TextureCreationParamsEPKNS_13TextureParamsE
kia:_luaH_getstr
os:__ZN5dmDDF12OutputStream11WriteDoubleEd
VCa:__ZN5dmGui19GetNodeSpineSceneIdEPNS_5SceneEj
DGa:__ZN5dmGuiL17LuaParticlefxPlayEP9lua_State
s3a:dynCall_viifi
c6a:_emscripten_glVertexAttrib3fv__wrapper
dba:__ZN8dmScriptL10Quat_indexEP9lua_State
y0a:_send
ba:invoke_fiiiiif
UXa:_x509_parse_time
FLa:_pk_group_id_from_group
of:_emscripten_glTexParameterf
qf:_emscripten_glTexParameteri
Mua:__ZN8dmSocket13GetHostByNameEPKcPNS_7AddressEbb
taa:__ZN8dmScriptL11Matrix4_newEP9lua_State
M8a:_emscripten_glVertexAttribI4ui__wrapper
kTa:_mbedtls_des_crypt_ecb
zZ:__ZN11b2GridShapeC2EPK9b2HullSet6b2Vec2ffjj
Ls:__ZN11dmHashTableImyE11SetCapacityEjj
BZa:_unlink
sA:__ZN12dmGameSystemL18RenderListDispatchERKN8dmRender24RenderListDispatchParamsE_2852
EOa:_ssl_parse_certificate_coordinate
sHa:__ZN7dmCrash13GetModuleNameEij
vE:__GLOBAL__sub_I_script_factory_cpp
Ep:__ZN12dmGameObjectL23ScriptInstance_tostringEP9lua_State
_3a:_emscripten_glIsTexture__wrapper
Da:invoke_viffff
v2a:_llvm_bswap_i32
Poa:__ZN10dmParticleL25CalculateModifierPositionEPNS_8InstanceEPN13dmParticleDDF7EmitterEPNS2_8ModifierE
Nz:__ZN12dmObjectPoolIN12dmGameSystem15SpriteComponentEE5AllocEv
GI:__ZN10dmGraphicsL17OpenGLIsSupportedEv
mya:_VR4
r6a:_emscripten_glHint__wrapper
ae:_emscripten_glGetIntegeri_v
oVa:_mbedtls_gcm_update
Fca:_meth_send
mb:___syscall102
uV:__ZNK17btConvexHullShape9getVertexEiR9btVector3
jM:__ZN9dmPhysics11MotionStateD0Ev
yBa:__ZN5dmGui21SetDynamicTextureDataEPNS_5SceneEyjjN7dmImage4TypeEbPKvj
v$:__ZN17b2ContactListener9PostSolveEP9b2ContactPK16b2ContactImpulse
Bpa:__ZN5dmRig10NewContextERKNS_16NewContextParamsE
fPa:_mbedtls_ssl_conf_transport
VIa:__ZN7dmSound11GetGroupRMSEyfPfS0_
Nj:FUNCTION_TABLE_fiiiiiiiiiii
eJa:__ZN12dmSoundCodecL19StbVorbisOpenStreamEPKvjPPv
kH:__ZN10dmGraphics15GetWindowHeightEPNS_7ContextE
LFa:__ZN5dmGuiL13LuaGetXAnchorEP9lua_State
Kxa:_WebPInitAlphaProcessing
VXa:_x509_parse_int
s7a:_emscripten_glDrawArrays__wrapper
vy:__ZN12dmGameSystem21CompParticleFXDestroyERKN12dmGameObject22ComponentDestroyParamsE
m:__THREW__
dca:_bit_tohex
_Ea:__ZN5dmGui15LuaSetSpineSkinEP9lua_State
cra:__ZN5dmDNS10NewChannelEPPNS_7ChannelE
Pe:_emscripten_glLoadIdentity
W$a:_store_int_155
ZW:__ZNK15btTriangleShape16getPlaneEquationEiR9btVector3S1_
hla:_db_setlocal
JYa:_mbedtls_chachapoly_update
g6a:_emscripten_glBindFramebuffer__wrapper
wx:__ZN12dmGameSystem16CompMeshNewWorldERKN12dmGameObject23ComponentNewWorldParamsE
ti:_glfwGetWindowSize
tIa:__ZN7dmSoundL17MixResampleUpMonoIsLi0ELi1EEEvPKNS_10MixContextEPNS_13SoundInstanceEjjPfj
JSa:_camellia_crypt_ecb_wrap
ZPa:_mbedtls_x509_crt_check_key_usage
Zk:__ZN8dmEngine20LoadBootstrapContentEPNS_6EngineEPN12dmConfigFile6ConfigE
NWa:_mbedtls_pem_free
Nh:_glPixelStorei
afa:_lua_setlevel
Kca:_timeout_init
gaa:__ZN8dmScriptL16LuaTimerCallbackEPNS_10TimerWorldENS_14TimerEventTypeEjfmm
Cfa:_lua_pushinteger
sW:__ZN17btGjkPairDetectorC2EPK13btConvexShapeS2_iiffP22btVoronoiSimplexSolverP30btConvexPenetrationDepthSolver
o$:__ZN6b2Body14DestroyFixtureEP9b2Fixture
Qo:__ZN12dmGameObject23MergePropertyContainersEPNS_17PropertyContainerES1_
x2:__ZN24b2ChainAndPolygonContact6CreateEP9b2FixtureiS1_iP16b2BlockAllocator
P1a:__ZNK10__cxxabiv120__si_class_type_info16search_below_dstEPNS_19__dynamic_cast_infoEPKvib
yba:__ZN8dmScriptL11Vector3_divEP9lua_State
yN:__ZN35btSequentialImpulseConstraintSolver10solveGroupEPP17btCollisionObjectiPP20btPersistentManifoldiPP17btTypedConstraintiRK19btContactSolverInfoP12btIDebugDrawP12btStackAllocP12btDispatcher
waa:__ZN8dmScriptL10Quat_BasisEP9lua_State
Dva:__ZN6dmWebP23DecodeCompressedTextureEPKvmPvmmNS_19TextureEncodeFormatE
rOa:_ssl_load_buffered_record
E$:__ZN16b2ContactManager7AddPairEPvS0_
qJa:_vorbis_decode_packet
kAa:_Launch
cV:__ZN15btCompoundShape20recalculateLocalAabbEv
mQ:__ZN16btDbvtBroadphase23getOverlappingPairCacheEv
uba:__ZN8dmScriptL16Vector3_newindexEP9lua_State
W2:__ZNK15b2FrictionJoint10GetAnchorAEv
IT:__ZN34btSphereTriangleCollisionAlgorithm16processCollisionEP17btCollisionObjectS1_RK16btDispatcherInfoP16btManifoldResult
cO:__ZN23btDiscreteDynamicsWorld12removeActionEP17btActionInterface
pOa:_mbedtls_ssl_handshake_free
jka:_read_numeral
_0a:_listen
$ea:_lua_xmove
bB:__ZN12dmGameSystem22ResConvexShapeRecreateERKN10dmResource22ResourceRecreateParamsE
NAa:_handleTouches
aQa:_x509_crt_verify_chain_reset
Zma:_str_match
DLa:_pk_group_id_from_specified
rf:_emscripten_glTexParameteriv
CDa:__ZN5dmGui21GetNodeSpineAnimationEPNS_5SceneEj
Wua:__ZN11dmHashTableIjPKcE3PutEjRKS1_
dK:__ZN10dmGraphicsL25OpenGLGetRenderTargetSizeEPNS_12RenderTargetENS_10BufferTypeERjS3_
Mq:__ZN12dmGameObject16CompScriptCreateERKNS_21ComponentCreateParamsE
gqa:__ZN12dmObjectPoolIPN5dmRig11RigInstanceEE4FreeEjb
CGa:__ZN5dmGuiL16LuaGetParticlefxEP9lua_State
OAa:__GLOBAL__sub_I_gui_cpp
LYa:_mbedtls_chachapoly_finish
lK:__ZN10dmGraphicsL28OpenGLGetTextureResourceSizeEPNS_7TextureE
yC:__ZN12dmGameSystem25ResRenderPrototypeDestroyERKN10dmResource21ResourceDestroyParamsE
_f:_emscripten_glVertexAttrib2fv
G9:__ZN8dmScript13InitializeSysEP9lua_State
J5a:b35
Y1a:__ZNK10__cxxabiv121__vmi_class_type_info16search_above_dstEPNS_19__dynamic_cast_infoEPKvS4_ib
zxa:_DecodeImageData
l2:__ZN12b2EPCollider7CollideEP10b2ManifoldPK11b2EdgeShapeRK11b2TransformPK14b2PolygonShapeS7_
iU:__ZNK10btBoxShape32getPreferredPenetrationDirectionEiR9btVector3
xl:__ZL15astar_clearpathP9lua_State
JIa:__ZN7dmSound15DeleteSoundDataEPNS_9SoundDataE
Qca:_timeout_lua_sleep
yQa:_mbedtls_internal_aes_encrypt
At:__ZN17dmResourceArchive6DeleteERPNS_21ArchiveIndexContainerE
C4:__ZN8dmRender17StencilTestParams4InitEv
M9:__ZN8dmScriptL24Sys_SetVsyncSwapIntervalEP9lua_State
Uf:_emscripten_glUniformMatrix4fv
sy:__ZN12dmGameSystem22CompParticleFXNewWorldERKN12dmGameObject23ComponentNewWorldParamsE
yg:_emscripten_glVertexAttribIPointer
TR:__ZN9btHashMapI9btHashPtrP16btCollisionShapeED2Ev
dp:__ZN12dmGameObject18Script_GetPositionEP9lua_State
T6a:b43
N_:__ZN15b2RevoluteJoint24SolvePositionConstraintsERK12b2SolverData
to:__ZN12dmGameObject17GetWorldTransformEPNS_8InstanceE
ZJa:__ZN10dmDeviceJS13DeviceJSQueueEPvPKsj
dY:__ZN33btConvexConcaveCollisionAlgorithm21calculateTimeOfImpactEP17btCollisionObjectS1_RK16btDispatcherInfoP16btManifoldResult
W:invoke_dii
PD:__ZN12dmGameSystem14SetStreamValueIjEEvPvid
$ta:__ZN8dmPPrint7Printer6IndentEi
iia:_luaH_free
AD:__ZN12dmGameSystem14GetStreamValueIfEEdPvi
YRa:_get_zeros_padding
$3:__ZN8dmRender14DeleteMaterialEPNS_13RenderContextEPNS_8MaterialE
xr:__ZN5dmDDF11InputBuffer12ReadVarInt64EPy
cx:__ZN12dmGameSystem20CompLabelAddToUpdateERKN12dmGameObject26ComponentAddToUpdateParamsE
Xja:_luaK_posfix
C3:__GLOBAL__sub_I_font_renderer_cpp
io:__ZN12dmGameObject13DispatchInputEPNS_10CollectionEPNS_11InputActionEj
rPa:_mbedtls_ssl_read
S8:__ZN8dmScriptL14HttpInitializeEPNS_7ContextE
A7a:_emscripten_glGetVertexAttribIuiv__wrapper
yca:_meth_getoption
xwa:__ZN16dmConnectionPool4DialEPNS_14ConnectionPoolEPKctPN5dmDNS7ChannelEbiPjPN8dmSocket6ResultE
QP:__ZN15btNullPairCache18addOverlappingPairEP17btBroadphaseProxyS1_
f:HEAPU32
zia:_luaV_lessthan
$$a:_fwrite
qYa:_mbedtls_ccm_free
Qt:__ZN10dmResourceL14CreateResourceEPNS_17ResourcePreloaderEPNS_14PreloadRequestEPvj
oV:__ZNK17btConvexHullShape24localGetSupportingVertexERK9btVector3
xRa:_mpi_uint_bigendian_to_host
C_a:_swapc
hJa:__ZN12dmSoundCodec20StbVorbisResetStreamEPv
jP:__ZN11btRigidBody25internalWritebackVelocityEf
_la:_math_floor
I1a:__ZN10__cxxabiv18is_equalEPKSt9type_infoS2_b
qY:__ZN23btConvexConvexAlgorithmD0Ev
eFa:__ZN5dmGui23LuaGetSpinePlaybackRateEP9lua_State
cm:__ZN14dmFacebookStubL20Facebook_AppFinalizeEPN11dmExtension9AppParamsE
sR:__ZN21btCollisionDispatcher26allocateCollisionAlgorithmEi
Gx:__ZN12dmGameSystem14CompMeshUpdateERKN12dmGameObject22ComponentsUpdateParamsERNS0_22ComponentsUpdateResultE
PQ:__ZNK28btHashedOverlappingPairCache26getOverlappingPairArrayPtrEv
H8a:_emscripten_glGetActiveUniformBlockName__wrapper
MCa:__ZN5dmGui18SetNodeTextLeadingEPNS_5SceneEjf
Yh:_glTexSubImage2D
gna:_max_expand
gJ:__ZN10dmGraphicsL28OpenGLGetMaxElementsVerticesEPNS_7ContextE
z_a:___lctrans
a$a:_strpbrk
Sp:__ZN12dmGameObject12DeleteScriptEPNS_6ScriptE
HJa:_init_blocksize
A:Math_sqrt
hK:__ZN10dmGraphicsL19OpenGLDeleteTextureEPNS_7TextureE
F7:__ZN8dmScript13GetInstanceIdEP9lua_State
ava:__ZN5dmSys25GetApplicationSupportPathEPKcPcj
Oh:_glPolygonOffset
Mla:_f_write
Y1:__ZNK12b2WheelJoint16GetReactionForceEf
ez:__ZN12dmGameSystemL24ResourceReloadedCallbackERKN10dmResource22ResourceReloadedParamsE_2608
hfa:_lua_replace
jr:__ZN5dmDDFL19DDFFileSaveFunctionEPvPKvj
e_:__ZNK7b2Mat3312GetInverse22EPS_
Yla:_math_deg
Fe:_emscripten_glIsEnabled
Sa:invoke_viiiiif
Gaa:__ZN8dmScriptL17Matrix4_RotationXEP9lua_State
Yaa:__ZN8dmScriptL16Matrix4_tostringEP9lua_State
Kp:__ZN12dmGameObjectL21ScriptInstanceIsValidEP9lua_State
OD:__ZN12dmGameSystem14SetStreamValueIyEEvPvid
tDa:__ZN5dmGui19SetNodeInheritAlphaEPNS_5SceneEjb
EX:__ZN30btActivatingCollisionAlgorithmD2Ev
XA:__ZN12dmGameSystem25ResCollisionObjectDestroyERKN10dmResource21ResourceDestroyParamsE
Sn:__ZN12dmGameObject11ScaleAlongZEPNS_16CollectionHandleE
W$:__ZN7b2World12DestroyJointEP7b2Joint
BW:__ZN20btPersistentManifold16sortCachedPointsERK15btManifoldPoint
Ci:_glfwSetMarkedTextCallback
S4a:_emscripten_glDepthRangef__wrapper
KX:__ZN26btBoxBoxCollisionAlgorithm21calculateTimeOfImpactEP17btCollisionObjectS1_RK16btDispatcherInfoP16btManifoldResult
Tva:_deflateEnd
f_a:___unlockfile
sh:_glDrawElements
_7:__ZN8dmScript13LuaStackCheckC2EP9lua_Statei
f2a:__ZSt15get_new_handlerv
uFa:__ZN5dmGuiL22LuaGetClippingInvertedEP9lua_State
mfa:_lua_isnumber
rta:__Z13dmLogFinalizev
$Na:_mbedtls_ssl_dtls_replay_check
zR:__ZN17btCollisionObjectD2Ev
qma:_luaopen_os
Ow:__ZN12dmGameSystem17GuiGetURLCallbackEPN5dmGui5SceneEPN9dmMessage3URLE
_i:_mktime
Ve:_emscripten_glReadPixels
TA:__ZN12dmGameSystem25ResCollectionProxyDestroyERKN10dmResource21ResourceDestroyParamsE
CSa:_des_ctx_free
bLa:_rsa_sign_wrap
$Sa:_mbedtls_des3_init
Qxa:_VP8DspInit
c4:__ZN8dmRender18GetMaterialProgramEPNS_8MaterialE
Sv:__ZN12dmGameSystem17SetCollisionFlipHEPvb
p2:__ZL19b2FindMaxSeparationPiPK14b2PolygonShapeRK11b2TransformS2_S5_
axa:_EmitRescaledYUV
r0:__ZN13b2DynamicTree12AllocateNodeEv
xsa:__ZN12dmHttpClientL13HandleVersionEPviiiPKc
tba:__ZN8dmScriptL13Vector3_indexEP9lua_State
Oqa:__ZN12dmConfigFile9GetStringEPNS_6ConfigEPKcS3_
CF:__ZN12dmGameSystemL13Sound_GetPeakEP9lua_State
Ina:__ZN5dmHID10GetGamepadEPNS_7ContextEh
yza:_WebPYuv444ToBgrC
Df:_emscripten_glUniform2fv
CV:__ZNK21btConvexInternalShape24localGetSupportingVertexERK9btVector3
JN:__ZN35btSequentialImpulseConstraintSolver14convertContactEP20btPersistentManifoldRK19btContactSolverInfo
m9:__ZN8dmScript8Msg_PostEP9lua_State
bt:__ZN10dmResource6GetRawEPNS_16SResourceFactoryEPKcPPvPj
dD:__ZN12dmGameSystem11CreateImageEPN10dmGraphics7ContextEPNS0_12TextureImageE
zL:__ZN9dmPhysics12SetEnabled2DEPNS_7World2DEPvb
xGa:__ZN5dmGuiL20LuaSetFlipbookCursorEP9lua_State
X9:__ZN8dmScript8AddTimerEPNS_10TimerWorldEfbPFvS1_NS_14TimerEventTypeEjfmmEmm
UEa:__ZN5dmGui12LuaPlaySpineEP9lua_State
lra:__ZN8dmEasing8GetValueENS_5CurveEf
Lda:_auxiliar_tostring
xIa:__ZN7dmSoundL23MixResampleIdentityMonoIsLi0ELi1EEEvPKNS_10MixContextEPNS_13SoundInstanceEjjPfj
u2a:_llvm_bswap_i16
Fma:_foreachi
ZZ:__ZN16b2BlockAllocator4FreeEPvi
$7:__ZN8dmScript13LuaStackCheckD2Ev
wta:__ZN12dmMemProfile10InitializeEv
s_:__ZN16b2PrismaticJoint24SolvePositionConstraintsERK12b2SolverData
gw:__ZN12dmGameSystem23CompFactoryGetPrototypeEPN12dmGameObject16CollectionHandleEPNS_16FactoryComponentE
E6:__ZN8dmRender28DispatchRenderScriptInstanceEPNS_20RenderScriptInstanceE
XEa:__ZN5dmGui15LuaGetSpineBoneEP9lua_State
sb:___syscall168
vH:__ZN10dmGraphics22GetMaxElementsVerticesEPNS_7ContextE
ZY:__ZN15CProfileManager12Stop_ProfileEv
i7:__ZN8dmScript23RegisterScriptExtensionEPNS_7ContextEPNS_15ScriptExtensionE
Ru:__ZN12dmGameSystem23GetUrlHashFromComponentEPNS_20CollectionProxyWorldEyj
l_:__ZNK16b2PrismaticJoint16GetReactionForceEf
vHa:__ZN7dmCrashL15InitializeCrashEPN11dmExtension6ParamsE
q7a:_emscripten_glGetObjectParameterivARB__wrapper
w6:__ZN11dmHashTableIyPN8dmRender8MaterialEE3PutEyRKS2_
rN:__ZN9dmPhysics15OverlapCacheAddEPNS_12OverlapCacheERKNS_19OverlapCacheAddDataE
tNa:_mbedtls_ssl_resend
sxa:_VP8LCheckSignature
zd:_emscripten_glEndTransformFeedback
Gva:_LZ4_decompress_fast
bW:__ZNK13btSphereShape49batchedUnitVectorGetSupportingVertexWithoutMarginEPK9btVector3PS0_i
UM:__ZN9dmPhysics11DebugDraw2DC2EPNS_14DebugCallbacksE
y1:__ZN12b2MouseJoint24SolvePositionConstraintsERK12b2SolverData
QUa:_ecp_double_add_mxz
Cla:_g_write
q:nan
Mu:__ZN12dmGameSystemL23PreloadCompleteCallbackEPKN10dmResource31PreloaderCompleteCallbackParamsE
Sta:__ZN7dmMutex7TryLockEPNS_5MutexE
hRa:_mbedtls_mpi_sub_abs
kL:__ZN9dmPhysics12NewHullSet2DEPNS_9Context2DEPKfjPKNS_8HullDescEj
pSa:_des3_crypt_ecb_wrap
YKa:_mbedtls_pk_encrypt
e0a:_vsscanf
O0a:_bind
vPa:_ssl_write_real
Ed:_emscripten_glFrontFace
e9a:_emscripten_glTexImage2D__wrapper
n5a:_emscripten_glDepthFunc__wrapper
j0a:_expm1
Xia:_luaL_optinteger
v3:__ZN8dmRenderL23DebugRenderListDispatchERKNS_24RenderListDispatchParamsE
BO:__ZN23btDiscreteDynamicsWorld11setNumTasksEi
tK:__ZN10dmGraphicsL27OpenGLGetTextureStatusFlagsEPNS_7TextureE
DV:__ZNK21btConvexInternalShape11getAabbSlowERK11btTransformR9btVector3S4_
R3:__ZN8dmRender10FlushTextsEPNS_13RenderContextEjjb
aF:__ZN12dmGameSystemL20Physics_DestroyJointEP9lua_State
sg:_emscripten_glVertexAttribI4iv
Z0:__ZN22b2GridAndCircleContact6CreateEP9b2FixtureiS1_iP16b2BlockAllocator
Ej:FUNCTION_TABLE_dii
CX:__ZNK14btQuantizedBvh25reportRayOverlappingNodexEP21btNodeOverlapCallbackRK9btVector3S4_
G4:__ZN8dmRender19RenderContextParamsC2Ev
JF:__ZN12dmGameSystemL10Sound_StopEP9lua_State
Bia:_luaV_concat
zZa:_islower
lda:_socket_close
U_:__ZN15b2RevoluteJoint17SetMaxMotorTorqueEf
DI:__ZN10dmGraphics10ReadPixelsEPNS_7ContextEPvj
yS:__ZNK16btCollisionWorld15convexSweepTestEPK13btConvexShapeRK11btTransformS5_RNS_20ConvexResultCallbackEf
k5a:_emscripten_glLoadMatrixf__wrapper
eL:__ZN9dmPhysics7FlipV2DEPv
TP:__ZN15btNullPairCache26getOverlappingPairArrayPtrEv
USa:_aes_crypt_cfb128_wrap
lVa:_gcm_gen_table
uH:__ZN10dmGraphics22SetVertexBufferSubDataEmjjPKv
XBa:__ZN5dmGui20CalculateNodeExtentsERKNS_4NodeENS_27CalculateNodeTransformFlagsERN10Vectormath3Aos7Matrix4E
w3:__ZN8dmRender21DisplayProfilesParamsC2Ev
sda:_socket_shutdown
FS:__ZN31btDefaultCollisionConfigurationD0Ev
K_a:_sift
mca:_tcp_open
YGa:__ZN5dmGuiL24GuiScriptInstanceIsValidEP9lua_State
Naa:__ZN8dmScriptL9NormalizeEP9lua_State
Oc:_emscripten_glClientActiveTexture
oba:__ZN8dmScriptL11Vector4_divEP9lua_State
JDa:__ZN5dmGui23SetNodeClippingInvertedEPNS_5SceneEjb
Lga:_lua_yield
PKa:_mbedtls_pk_can_do
YQa:_mbedtls_mpi_lsb
iha:_reallymarkobject
$p:__ZN12dmGameObject13ResAnimCreateERKN10dmResource20ResourceCreateParamsE
rla:_io_close
iqa:__ZN5dmRig18FillBoneListArraysERKN8dmRigDDF7MeshSetERKNS0_12AnimationSetERKNS0_8SkeletonER7dmArrayIjESC_
fi:_glfwGetAcceleration
Zua:__ZN5dmSys26SetNetworkConnectivityHostEPKc
Vka:_luaB_xpcall
aIa:__ZN12dmLiveUpdate6UpdateEv
gda:_meth_getoption_7757
ZT:__ZNK21btConvexInternalShape15getLocalScalingEv
WFa:__ZN5dmGuiL12LuaIsEnabledEP9lua_State
lD:__ZN11dmHashTableIyjE11SetCapacityEjj
bb:___buildEnvironment
VB:__ZN12dmGameSystem18ResMaterialDestroyERKN10dmResource21ResourceDestroyParamsE
_g:_glClearDepthf
kK:__ZN10dmGraphicsL22OpenGLSetTextureParamsEPNS_7TextureENS_13TextureFilterES2_NS_11TextureWrapES3_
VC:__ZN12dmGameSystem19ResSpineModelCreateERKN10dmResource20ResourceCreateParamsE
rt:__ZN17dmResourceArchive17WrapArchiveBufferEPKvS1_PKcS1_P8_IO_FILEPPNS_21ArchiveIndexContainerE
h_a:_getint
Rea:_opt_setmembership
bTa:_mbedtls_des_setkey
u8:__ZN8dmScript8PushHashEP9lua_Statey
Wha:_lua_newstate
$A:__ZN12dmGameSystem20ResConvexShapeCreateERKN10dmResource20ResourceCreateParamsE
RU:__ZNK16btCollisionShape21calculateTemporalAabbERK11btTransformRK9btVector3S5_fRS3_S6_
P3:__ZN8dmRender8DrawTextEPNS_13RenderContextEPNS_7FontMapEPNS_8MaterialEyRKNS_14DrawTextParamsE
Aaa:__ZN8dmScriptL15Matrix4_FrustumEP9lua_State
EJa:_maybe_start_packet
em:__ZN14dmFacebookStubL19Facebook_ThrowErrorEP9lua_State
hPa:_mbedtls_ssl_conf_authmode
nua:__ZN9dmProfile15AddCounterIndexEjj
qV:__ZNK17btConvexHullShape49batchedUnitVectorGetSupportingVertexWithoutMarginEPK9btVector3PS0_i
Pn:__ZN12dmGameObject17GetComponentIndexEPNS_8InstanceEyPt
fb:___cxa_pure_virtual
uy:__ZN12dmGameSystem20CompParticleFXCreateERKN12dmGameObject21ComponentCreateParamsE
bw:__ZN12dmGameSystem18CompFactoryDestroyERKN12dmGameObject22ComponentDestroyParamsE
jK:__ZN10dmGraphicsL21OpenGLSetTextureAsyncEPNS_7TextureERKNS_13TextureParamsE
nUa:_mbedtls_ecp_point_write_binary
kZ:__ZNK11b2EdgeShape13GetChildCountEv
mr:__ZN5dmDDF13DoLoadMessageEPNS_11LoadContextEPNS_11InputBufferEPKNS_10DescriptorEPNS_7MessageE
JOa:_mbedtls_ssl_check_cert_usage
Hda:__GLOBAL__sub_I_lua_source_ddf_cpp
$Oa:_ssl_handshake_init
vA:__ZN12dmGameSystem20CompTileGridOnReloadERKN12dmGameObject23ComponentOnReloadParamsE
JL:__ZN9dmPhysics14ReplaceShape2DEPNS_9Context2DEPvS2_
daa:__ZN8dmScript15TimerInitializeEPNS_7ContextE
tXa:_ssl_parse_truncated_hmac_ext
Xm:__ZN12dmGameObject18SetUpdateOrderPrioEPNS_8RegisterEmt
X1a:__ZN10__cxxabiv121__vmi_class_type_infoD0Ev
Aha:_luaY_parser
Xc:_emscripten_glCreateProgram
HRa:_mbedtls_mpi_inv_mod
rG:__ZN12dmGameSystemL10GetDimModeEP9lua_State
gt:__ZN10dmResource13GetDescriptorEPNS_16SResourceFactoryEPKcPNS_19SResourceDescriptorE
Qs:__ZN10dmResource13DeleteFactoryEPNS_16SResourceFactoryE
Em:__ZN12dmGameObjectL16DoDeleteInstanceEPNS_10CollectionEPNS_8InstanceE
zG:__ZN12dmGameSystem18PlatformSetDimModeENS_7DimModeE
vGa:__ZN5dmGuiL14LuaGetTrackingEP9lua_State
Zi:_longjmp
$9:__ZN8dmScriptL13GetTimerWorldEPNS_11ScriptWorldE
$ka:_db_gethook
a7:__ZN8dmScriptL19Lua_Math_RandomseedEP9lua_State
wp:__ZN12dmGameObjectL27LuaAnimationStoppedCallbackEP9lua_StatePv
Yl:__ZN11micropather9PathCache13AddNoSolutionEPvPS1_i
lW:__ZN30btConvexPenetrationDepthSolverD2Ev
V_:__ZNK15b2RevoluteJoint14IsLimitEnabledEv
lZa:___stdout_write
Cxa:_ProcessRows
l6a:_emscripten_glGenVertexArrays__wrapper
BIa:__ZN7dmSound14RegisterDeviceEPNS_10DeviceTypeE
pha:_luaM_growaux_
H4a:_emscripten_glEndConditionalRender__wrapper
B3a:dynCall_viiiii
DSa:_ccm_camellia_setkey_wrap
XZ:__ZN16b2BlockAllocatorD2Ev
Dz:__ZN12dmGameSystem33CompSpineModelSetIKTargetPositionEPNS_19SpineModelComponentEyfN10Vectormath3Aos6Point3E
UG:__ZN10dmGraphics13ContextParamsC2Ev
Pxa:_ExtractAlpha
PU:__ZNK16btCollisionShape9serializeEPvP12btSerializer
JA:__ZN12dmGameSystem15ResCameraCreateERKN10dmResource20ResourceCreateParamsE
QFa:__ZN5dmGuiL11LuaSetPivotEP9lua_State
hMa:_rsa_rsassa_pkcs1_v15_encode
wr:__ZN5dmDDF11InputBuffer12ReadVarInt32EPj
bga:_lua_status
oza:_WebPRescalerDspInit
k$:__ZN6b2BodyD2Ev
kDa:__ZN5dmGui17SetNodeParticlefxEPNS_5SceneEjy
Z1a:__ZNK10__cxxabiv121__vmi_class_type_info16search_below_dstEPNS_19__dynamic_cast_infoEPKvib
an:__ZNSt3__218__insertion_sort_3IRN12dmGameObject21ComponentTypeSortPredEPtEEvT0_S5_T_
jB:__ZN12dmGameSystem16ResFactoryCreateERKN10dmResource20ResourceCreateParamsE
Yea:_opt_get_error
Tma:_str_format
UF:__ZN12dmGameSystem29SpineComp_SetIKTargetPositionEP9lua_State
fYa:_mbedtls_base64_decode
tPa:_mbedtls_ssl_write
Q2:__ZN15b2DistanceJoint4DumpEv
xg:_emscripten_glVertexAttribI4usv
_d:_emscripten_glGetFramebufferAttachmentParameteriv
Cj:tempFloat
zJa:_flush_packet
Fc:_emscripten_glClear
EIa:__ZN7dmSoundL16GetOrCreateGroupEPKc
MTa:_ecdh_make_public_internal
bp:__ZN12dmGameObject10Script_GetEP9lua_State
IQ:__ZN16btDbvtBroadphaseC2EP22btOverlappingPairCache
dq:__ZN12dmGameObjectL16AcquireResourcesEPKcPN10dmResource16SResourceFactoryEPNS_8RegisterEPN15dmGameObjectDDF14CollectionDescES1_PPNS_16CollectionHandleE
RJ:__ZN10dmGraphicsL18OpenGLSetBlendFuncEPNS_7ContextENS_11BlendFactorES2_
yka:_auxresume
NX:__ZN16btBoxBoxDetectorD0Ev
Dba:__ZN8dmScriptL15Vector_tostringEP9lua_State
LDa:__ZN5dmGui16GetNodeBlendModeEPNS_5SceneEj
jj:_pthread_mutex_destroy
e9:__ZN8dmScriptL10LoadModuleEP9lua_State
pz:__ZN12dmGameSystem21CompSpineModelDestroyERKN12dmGameObject22ComponentDestroyParamsE
rM:__ZN9dmPhysics18GetLinearDamping3DEPv
MR:__ZNK16btCollisionWorld7rayTestERK9btVector3S2_RNS_17RayResultCallbackE
EZa:___strdup
faa:__ZN8dmScriptL11TimerCancelEP9lua_State
bh:_glCompileShader
al:__ZN8dmEngineL20InputBufferOrderSortEPKvS1_
pja:_panic
Fia:_luaZ_init
_F:__GLOBAL__sub_I_script_sprite_cpp
qu:__ZN12dmGameSystem18FinalizeScriptLibsERKNS_16ScriptLibContextE
vh:_glFlush
MFa:__ZN5dmGuiL13LuaSetXAnchorEP9lua_State
Yja:_luaK_fixline
YEa:__ZN5dmGui16LuaSetSpineSceneEP9lua_State
h4:__ZN8dmRender30GetMaterialProgramConstantInfoEPNS_8MaterialEyPyPS2_Pj
pv:__ZN12dmGameSystem17CollisionCallbackEPvtS0_tS0_
ge:_emscripten_glGetRenderbufferParameteriv
pN:__ZN11dmHashTableImN9dmPhysics12OverlapEntryEE3PutEmRKS1_
ZS:__ZN28btCompoundCollisionAlgorithm10CreateFuncD0Ev
qVa:_mbedtls_gcm_crypt_and_tag
Sm:__ZN12dmGameObject13NewCollectionEPKcPN10dmResource16SResourceFactoryEPNS_8RegisterEj
hL:__ZN9dmPhysics16NewCircleShape2DEPNS_9Context2DEf
PJa:__ZN12dmSoundCodec14WavResetStreamEPv
HH:__ZN10dmGraphics12DrawElementsEPNS_7ContextENS_13PrimitiveTypeEjjNS_4TypeEm
o6:__ZN8dmRenderL19RenderScriptIsValidEP9lua_State
K_:__ZN15b2RevoluteJointD0Ev
XCa:__ZN5dmGuiL17SpinePoseCallbackEPvS0_
mua:__ZN9dmProfile15AllocateCounterEPKc
oUa:_mbedtls_ecp_point_read_binary
PDa:__ZN5dmGui14GetNodeYAnchorEPNS_5SceneEj
Pya:_VP8LConvertBGRAToRGBA4444_C
p0:__ZN13b2DynamicTreeC2Ev
Gy:__ZN12dmGameSystem11SetPropertyEyRKN12dmGameObject11PropertyVarERN10Vectormath3Aos7Vector3ERKNS_11PropVector3E
tN:__ZN11dmHashTableImN9dmPhysics12OverlapEntryEE5EraseEm
rAa:_adler32
Xsa:__ZL22stbi__jpeg_huff_decodeP10stbi__jpegP13stbi__huffman
DX:__ZNK14btQuantizedBvh29reportBoxCastOverlappingNodexEP21btNodeOverlapCallbackRK9btVector3S4_S4_S4_
t8a:_emscripten_glVertexAttribI3i__wrapper
Fn:__ZN10Vectormath3Aos7inverseERKNS0_7Matrix4E
AJ:__ZN10dmGraphicsL25OpenGLReloadVertexProgramEmPNS_10ShaderDesc6ShaderE
ZU:__ZN15btCompoundShape9setMarginEf
EQ:__ZN20BroadphaseAabbTester7ProcessEPK10btDbvtNode
n8:__ZN11dmHashTableImPFN8dmScript6ResultEP9lua_StatePKN5dmDDF10DescriptorEPKcEE11SetCapacityEjj
DG:__GLOBAL__sub_I_gamesys_ddf_cpp
x1a:__ZL25default_terminate_handlerv
NPa:_x509_get_uid
Xqa:__ZN7dmCrypt10HashSha512EPKhjPh
cX:__ZN22btSubsimplexConvexCastC2EPK13btConvexShapeS2_P22btVoronoiSimplexSolver
_Ja:__ZN10dmDeviceJS23DeviceJSFreeBufferSlotsEPv
vFa:__ZN5dmGuiL22LuaSetClippingInvertedEP9lua_State
Hx:__ZN12dmGameSystem14CompMeshRenderERKN12dmGameObject22ComponentsRenderParamsE
a4a:_emscripten_glIsRenderbuffer__wrapper
Ht:__ZN11dmHashTableIyjE3PutEyRKj
D3:__ZN8dmRender13FontMapParamsC2Ev
Doa:__ZN10dmParticle4GetYEPKN13dmParticleDDF11SplinePointEjf
wM:__ZN9dmPhysics16RequestRayCast3DEPNS_7World3DERKNS_14RayCastRequestE
jla:_db_setupvalue
ox:__ZN12dmGameSystem17CompLightNewWorldERKN12dmGameObject23ComponentNewWorldParamsE
IDa:__ZN5dmGui22SetNodeClippingVisibleEPNS_5SceneEjb
Vza:_VP8InitBitReader
zy:__ZN12dmGameSystem20CompParticleFXRenderERKN12dmGameObject22ComponentsRenderParamsE
jR:__ZN21btCollisionDispatcher14getNewManifoldEPvS0_
MWa:_pem_pbkdf1
CU:__ZNK14btCapsuleShape7getNameEv
i_a:_pop_arg
Rqa:__ZN7dmCryptL14EncryptXTeaCTREPhjPKhj
jSa:_chachapoly_ctx_alloc
sQa:_mbedtls_x509_crt_verify_restartable
jca:_collect_fd
OY:__ZN12gjkepa2_impl3EPA8EvaluateERNS_3GJKERK9btVector3
ob:___syscall140
pb:___syscall142
qb:___syscall145
rb:___syscall146
$1:__ZN12b2WheelJointD0Ev
Qk:_main
ffa:_lua_remove
Hxa:_WebPMultRowC
aj:_pthread_attr_destroy
Sf:_emscripten_glUniformMatrix2fv
Gs:__ZN10dmResource18BundleVersionValidEPKNS_8ManifestEPKc
wB:__ZN12dmGameSystem20ResGamepadMapDestroyERKN10dmResource21ResourceDestroyParamsE
S0a:_hexval
Zn:__ZN12dmGameObject11GetPositionEPNS_8InstanceE
oXa:_mbedtls_pk_ec_13093
oh:_glDepthMask
xd:_emscripten_glEnablei
NYa:_mbedtls_chachapoly_encrypt_and_tag
Jxa:_WebPMultRows
hR:__ZN21btCollisionDispatcherD0Ev
u7a:_emscripten_glStencilOp__wrapper
dH:__ZN10dmGraphics11CloseWindowEPNS_7ContextE
No:__ZN12dmGameObject13PushURLStringEPNS_24PropertyContainerBuilderEyPKc
q4:__ZN8dmRender20SetMaterialUserData2EPNS_8MaterialEy
N8:__ZN8dmScriptL12SendResponseEPKN9dmMessage3URLEiPKcjS5_j
_Ia:__ZN7dmSound10SetLoopingEPNS_13SoundInstanceEb
iC:__ZN12dmGameSystem18ResMeshSetRecreateERKN10dmResource22ResourceRecreateParamsE
fM:__ZN9dmPhysics20NewConvexHullShape3DEPNS_9Context3DEPKfj
TTa:_mbedtls_ecdsa_write_signature_restartable
RW:__ZNK15btTriangleShape32getPreferredPenetrationDirectionEiR9btVector3
Iwa:_WebPAllocateDecBuffer
EP:__ZN20btAlignedObjectArrayI16btBroadphasePairE17quickSortInternalI29btBroadphasePairSortPredicateEEvT_ii
b3a:dynCall_v
BFa:__ZN5dmGuiL13LuaNewTextureEP9lua_State
TAa:__ZN5dmGui10NewContextEPKNS_16NewContextParamsE
$f:_emscripten_glVertexAttrib3f
Caa:__ZN8dmScriptL20Matrix4_OrthographicEP9lua_State
LY:__ZN12gjkepa2_impl3GJK13projectoriginERK9btVector3S3_S3_S3_PfRj
_Q:__ZN17btOverlapCallbackD2Ev
oja:_l_alloc
$ra:__ZN11dmHttpCache7GetInfoEPNS_5CacheEPKcPNS_9EntryInfoE
Vk:__ZN8dmEngine6DeleteEPNS_6EngineE
Soa:__ZNSt3__27__sort3IRN10dmParticle8SortPredEPNS1_8ParticleEEEjT0_S6_S6_T_
R8a:_emscripten_glDrawRangeElements__wrapper
Sfa:_lua_settable
Uma:_gfind_nodef
_oa:__ZN10dmParticle11SetPositionEPNS_7ContextEjRKN10Vectormath3Aos6Point3E
PB:__ZN12dmGameSystem14ResLightCreateERKN10dmResource20ResourceCreateParamsE
Er:__ZN5dmDDF11InputBuffer10ReadUInt32EPj
_6:__ZN8dmScript9LuaPPrintEP9lua_State
iwa:__tr_align
zQa:_mbedtls_internal_aes_decrypt
BG:__GLOBAL__sub_I_buffer_ddf_cpp
zra:__ZN20ReverseHashContainer26AllocReverseHashStatesSlotEv
yya:_DC8uv
lYa:_mbedtls_camellia_crypt_ecb
OR:__ZN16btCollisionWorld21removeCollisionObjectEP17btCollisionObject
jW:__ZN27btContinuousConvexCollisionC2EPK13btConvexShapeS2_P22btVoronoiSimplexSolverP30btConvexPenetrationDepthSolver
xE:__ZN12dmGameSystem18FactoryComp_UnloadEP9lua_State
bXa:_mbedtls_ssl_hs_hdr_len_13091
I7a:_emscripten_glGetTexParameterIiv__wrapper
nAa:_WebPGetWorkerInterface
s8a:_emscripten_glTransformFeedbackVaryings__wrapper
bRa:_mpi_get_digit
b1a:_ispunct
qN:__ZN9dmPhysics17OverlapCacheResetEPNS_12OverlapCacheE
J8:__ZN8dmScript9Html5_RunEP9lua_State
dh:_glCompressedTexSubImage2D
dXa:_mbedtls_ssl_own_cert_13092
nu:__GLOBAL__sub_I_gamesys_script_cpp
ria:_luaT_gettmbyobj
ve:_emscripten_glGetUniformfv
gFa:__ZN5dmGuiL13LuaNewBoxNodeEP9lua_State
nxa:_VP8GetHeaders
CM:__ZN9dmPhysics14NewWorldParamsC2Ev
fxa:_EmitAlphaRGB
L1a:__ZNK10__cxxabiv117__class_type_info29process_static_type_above_dstEPNS_19__dynamic_cast_infoEPKvS4_i
uLa:_ecdsa_alloc_wrap
pL:__ZN9dmPhysics18SetGridShapeEnableEPvjj
CJa:_codebook_decode_deinterleave_repeat
Sna:__ZN5dmHID16GetGamepadPacketEPNS_7GamepadEPNS_13GamepadPacketE
uo:__ZN12dmGameObject14GetWorldMatrixEPNS_8InstanceE
zOa:_ssl_check_record_type
av:__ZN12dmGameSystem28CompCollectionProxyOnMessageERKN12dmGameObject24ComponentOnMessageParamsE
cwa:_inflateEnd
N1:__ZNK11b2WeldJoint10GetAnchorBEv
fd:_emscripten_glDeleteVertexArrays
tza:_UpsampleArgbLinePair
wt:__ZN17dmResourceArchive23NewArchiveIndexFromCopyERPNS_12ArchiveIndexEPNS_21ArchiveIndexContainerEj
lv:__ZN12dmGameSystemL13SetupTileGridEPNS_14CollisionWorldEPNS_18CollisionComponentE
TQ:__ZN28btHashedOverlappingPairCache19cleanProxyFromPairsEP17btBroadphaseProxyP12btDispatcher
yja:_luaK_getlabel
e5a:_emscripten_glValidateProgram__wrapper
RM:__ZN9dmPhysics11DebugDraw2D11DrawSegmentERK6b2Vec2S3_RK7b2Color
d0a:_sscanf
If:_emscripten_glUniform3fv
ec:_emscripten_asm_const_ii
YUa:_mbedtls_ecp_check_pub_priv
YO:__ZN11btRigidBody14setupRigidBodyERKNS_27btRigidBodyConstructionInfoE
ze:_emscripten_glGetVertexAttribIuiv
Kj:FUNCTION_TABLE_fiiiii
wwa:__ZN16dmConnectionPool6DoDialEPNS_14ConnectionPoolEPKctPN5dmDNS7ChannelEbiPjPN8dmSocket6ResultEbb
K6:__ZN8dmRender7CommandC2ENS_11CommandTypeE
GNa:_mbedtls_ssl_get_max_frag_len
uJa:_vorbis_decode_initial
V6:__ZN11dmHashTableIyN8dmScript6ModuleEE3PutEyRKS1_
YQ:__ZN28btHashedOverlappingPairCache28setInternalGhostPairCallbackEP25btOverlappingPairCallback
J9:__ZN8dmScriptL8Sys_ExitEP9lua_State
tI:__ZN10dmGraphics16SetTextureParamsEPNS_7TextureENS_13TextureFilterES2_NS_11TextureWrapES3_
AX:__ZNK14btQuantizedBvh27walkStacklessTreeAgainstRayEP21btNodeOverlapCallbackRK9btVector3S4_S4_S4_ii
cR:__ZZN28btHashedOverlappingPairCache37removeOverlappingPairsContainingProxyEP17btBroadphaseProxyP12btDispatcherEN18RemovePairCallback14processOverlapER16btBroadphasePair
_Ya:_free
nSa:_chacha20_ctx_alloc
YNa:_ssl_get_hs_frag_off
nA:__ZN12dmGameSystem19CompTileGridDestroyERKN12dmGameObject22ComponentDestroyParamsE
EL:__ZN9dmPhysics9GetMass2DEPv
mNa:_mbedtls_ssl_decrypt_buf
yJa:_inverse_mdct
ofa:_lua_isuserdata
gIa:__ZN12dmLiveUpdate16MissingResourcesEPN10dmResource8ManifestEyPPhj
Md:_emscripten_glGetActiveAttrib
lza:_WebPRescalerExportRowShrinkC
vUa:_ecp_mul_mxz
UHa:__ZN12dmLiveUpdate16ParseManifestBinEPhmPN10dmResource8ManifestE
gNa:_ssl_calc_finished_tls
pia:_luaT_init
is:__ZN5dmDDF12OutputStream5WriteEPKvi
VW:__ZNK15btTriangleShape9getVertexEiR9btVector3
Wg:_glBufferSubData
xua:__ZN8dmSocket15SetReuseAddressEib
KEa:__ZN5dmGui13LuaGetOutlineEP9lua_State
eN:__ZNK9dmPhysics11DebugDraw3D12getDebugModeEv
nM:__ZN9dmPhysics12ApplyForce3DEPNS_9Context3DEPvRKN10Vectormath3Aos7Vector3ERKNS4_6Point3E
J1a:__ZNK10__cxxabiv117__class_type_info24process_found_base_classEPNS_19__dynamic_cast_infoEPvi
zXa:_mbedtls_ssl_safer_memcmp_13094
sua:__ZN8dmSocket14ResultToStringENS_6ResultE
cta:__ZL31stbi__load_and_postprocess_8bitP13stbi__contextPiS1_S1_i
Dxa:_VP8LDecodeAlphaImageStream
Fta:__ZN9dmMessage13GetSocketNameEy
iza:_WebPRescalerImportRowExpandC
e3:__ZNK11b2GearJoint10GetAnchorAEv
Pua:__ZN8dmSocket14SetSendTimeoutEiy
usa:__ZN12dmHttpClient3GetEPNS_6ClientEPKc
zVa:_mbedtls_hmac_drbg_free
oE:__ZN12dmGameSystemL14HashTableIndexEP9lua_State
zYa:_mbedtls_chacha20_starts
RWa:_mbedtls_ssl_get_ciphersuite_sig_pk_alg
y_a:___strerror_l
fN:__ZN12btIDebugDraw8drawAabbERK9btVector3S2_S2_
lja:_luaL_loadbuffer
nF:__ZN12dmGameSystemL3SetEP9lua_State
vf:_emscripten_glTexSubImage3D
N:Math_min
nra:__ZN20ReverseHashContainer6EnableEb
QZ:__Z13b2TestOverlapPK7b2ShapeiS1_iRK11b2TransformS4_
$6a:_emscripten_glGetUniformfv__wrapper
R4:__ZN8dmRender16SetSystemFontMapEPNS_13RenderContextEPNS_7FontMapE
Cda:_socket_strerror
hca:_select_open
RFa:__ZN5dmGuiL11LuaGetWidthEP9lua_State
Q4:__ZN8dmRender13RenderListEndEPNS_13RenderContextE
Rz:__ZN12dmObjectPoolIN12dmGameSystem15SpriteComponentEE4FreeEjb
vF:__ZN12dmLiveUpdate22Resource_StoreResourceEP9lua_State
mYa:_mbedtls_camellia_crypt_cbc
Pca:_timeout_lua_gettime
eea:_inet_global_toip
C$:__ZNSt3__26__sortIRPFbRK6b2PairS3_EPS1_EEvT0_S8_T_
I4:__ZN8dmRender13DebugRendererC2Ev
QRa:_mbedtls_cipher_set_padding_mode
xM:__ZN9dmPhysics9RayCast3DEPNS_7World3DERKNS_14RayCastRequestERNS_15RayCastResponseE
p3:__ZN8dmRender23InitializeDebugRendererEPNS_13RenderContextEjPKvjS3_j
$Pa:_x509_crt_verify_restartable_ca_cb
tla:_io_input
i2:__Z16b2CollideCirclesP10b2ManifoldPK13b2CircleShapeRK11b2TransformS3_S6_
rHa:__ZN7dmCrash16GetBacktraceAddrEij
NM:__ZN9dmPhysics11DebugDraw2D11DrawPolygonEPK6b2Vec2iRK7b2Color
PP:__ZN15btNullPairCacheD0Ev
ZO:__ZN11btRigidBodyC2EfP13btMotionStateP16btCollisionShapeRK9btVector3
zsa:__ZN12dmHttpClientL13HandleContentEPvi
kF:__ZN12dmGameSystemL24UnpackConnectJointParamsEP9lua_StateN9dmPhysics9JointTypeEiRNS2_18ConnectJointParamsE
Koa:__ZN10dmParticleL13UpdateEmitterEPNS_9PrototypeEPNS_8InstanceEPNS_16EmitterPrototypeEPNS_7EmitterEPN13dmParticleDDF7EmitterEf
w:tempDouble
nf:_emscripten_glTexParameterIuiv
oI:__ZN10dmGraphics24IsTextureFormatSupportedEPNS_7ContextENS_13TextureFormatE
_Ba:__ZN5dmGuiL18CollectInvClippersEPNS_5SceneEtR7dmArrayINS_20InternalClippingNodeEERNS_12ScopeContextEt
bx:__ZN12dmGameSystem19CompRenderConstantsaSERKS0_
Jda:_auxiliar_open
qha:_luaM_realloc_
W9:__ZN8dmScriptL9FreeTimerEPNS_10TimerWorldERNS_5TimerE
YT:__ZN10btBoxShape15setLocalScalingERK9btVector3
Su:__ZN12dmGameSystem27CompCollectionProxyNewWorldERKN12dmGameObject23ComponentNewWorldParamsE
B8:__ZN8dmScriptL9Script_eqEP9lua_State
jY:__ZN24btConvexTriangleCallbackD0Ev
S3:__ZN8dmRenderL22FontRenderListDispatchERKNS_24RenderListDispatchParamsE
lz:__ZN12dmGameSystem25CompSpineModelDeleteWorldERKN12dmGameObject26ComponentDeleteWorldParamsE
IFa:__ZN5dmGuiL12LuaGetLayoutEP9lua_State
c2a:___cxa_guard_acquire
aJ:__ZN10dmGraphicsL21OpenGLSetSwapIntervalEPNS_7ContextEj
Dqa:__ZN12dmConfigFile12ParseSectionEPNS_7ContextE
Um:__ZN12dmGameObject8GetWorldEPNS_16CollectionHandleEj
$a:__ZSt18uncaught_exceptionv
wUa:_ecp_mul_comb
DWa:_mbedtls_oid_get_md_alg
Ql:__ZN11micropather12PathNodePoolD2Ev
k$a:___stpncpy
yF:__GLOBAL__sub_I_script_sound_cpp
Mca:_timeout_getretry
Hm:__ZN12dmGameObjectL24ResourceReloadedCallbackERKN10dmResource22ResourceReloadedParamsE
fX:__ZN22btVoronoiSimplexSolver28updateClosestVectorAndPointsEv
$Ia:__ZN7dmSound12SetParameterEPNS_13SoundInstanceENS_9ParameterERKN10Vectormath3Aos7Vector4E
hha:_propagatemark
Ap:__ZN12dmGameObject16Script_DeleteAllEP9lua_State
FG:__GLOBAL__sub_I_label_ddf_cpp
H:Math_atan
cqa:__ZN5dmRig13ResetIKTargetEPNS_11RigInstanceEy
_Ca:__ZN5dmGui22CalculateNodeTransformEPNS_5SceneEPNS_12InternalNodeENS_27CalculateNodeTransformFlagsERN10Vectormath3Aos7Matrix4E
MP:__ZN20btAxisSweep3InternalItE9addHandleERK9btVector3S3_PvssP12btDispatcherS4_
EE:__ZN12dmGameSystemL7GetTextEP9lua_State
Iba:__ZN8dmScript11PushVector3EP9lua_StateRKN10Vectormath3Aos7Vector3E
Tu:__ZN12dmGameSystem30CompCollectionProxyDeleteWorldERKN12dmGameObject26ComponentDeleteWorldParamsE
aSa:_mbedtls_cipher_reset
YM:__ZN12btIDebugDraw8drawLineERK9btVector3S2_S2_S2_
Ee:_emscripten_glIsBuffer
XJa:__ZN10dmDeviceJS12DeviceJSOpenEPKN7dmSound16OpenDeviceParamsEPPv
jba:__ZN8dmScriptL13Vector4_indexEP9lua_State
mxa:_VP8GetInfo
kr:__ZN5dmDDF11FreeMessageEPv
_Na:_mbedtls_ssl_update_handshake_status
Wpa:__ZN5dmRig15GetPlaybackRateEPNS_11RigInstanceE
AL:__ZN9dmPhysics18GetLinearDamping2DEPv
qD:__ZN12dmGameSystem16AcquireResourcesEPN9dmPhysics9Context2DEPN10dmResource16SResourceFactoryEPN15dmGameSystemDDF8TileGridEPNS_16TileGridResourceEPKcb
FHa:__ZN7dmCrashL21Crash_ReleasePreviousEP9lua_State
xna:__ZN11dmExtension8RegisterEPNS_4DescEjPKcPFNS_6ResultEPNS_9AppParamsEES8_PFS4_PNS_6ParamsEESC_SC_PFvSA_PKNS_5EventEE
x$:__ZN16b2ContactManager7DestroyEP9b2Contact
H1a:__ZNK10__cxxabiv117__class_type_info27has_unambiguous_public_baseEPNS_19__dynamic_cast_infoEPvi
_J:__ZN10dmGraphicsL22OpenGLSetPolygonOffsetEPNS_7ContextEff
zaa:__ZN8dmScriptL14Quat_RotationZEP9lua_State
pua:__ZN9dmProfile12ProfileScope8EndScopeEv
w6a:_emscripten_glBeginConditionalRender__wrapper
qW:__ZN17btGjkPairDetector26getClosestPointsNonVirtualERKN36btDiscreteCollisionDetectorInterface17ClosestPointInputERNS0_6ResultEP12btIDebugDraw
xYa:_mbedtls_chacha20_free
qka:_luaB_newproxy
j3a:dynCall_vi
c3a:dynCall_vd
f3a:dynCall_vf
Qy:__GLOBAL__sub_I_comp_sound_cpp
iDa:__ZN5dmGui16GetNodeSpineBoneEPNS_5SceneEjy
Bma:_os_tmpname
oR:__ZN21btCollisionDispatcher25dispatchAllCollisionPairsEP22btOverlappingPairCacheRK16btDispatcherInfoP12btDispatcher
B$:__Z14b2PairLessThanRK6b2PairS1_
c0:__ZN7b2World9DrawShapeEP9b2FixtureRK11b2TransformRK7b2Color
Lt:__ZN10dmResource12NewPreloaderEPNS_16SResourceFactoryEPKc
G$a:_fprintf
s9:__ZN8dmScriptL6URL_eqEP9lua_State
cMa:_all_or_nothing_int
og:_emscripten_glVertexAttribI3ui
NGa:__ZN5dmGuiL15PushTextMetricsEP9lua_StatePNS_5SceneEyPKcfbff
vLa:_ecdsa_free_wrap
ZDa:__ZN5dmGui12GetNodePivotEPNS_5SceneEj
IE:__ZN12dmGameSystem17LuaModelComp_PlayEP9lua_State
xw:__ZN12dmGameSystem12CompGuiFinalERKN12dmGameObject20ComponentFinalParamsE
Q:Math_fround
qR:__ZN21btCollisionDispatcher26getManifoldByIndexInternalEi
mia:_luaH_setnum
Sua:__ZN12dmStringPool3NewEv
_ra:__ZN11dmHttpCache7GetETagEPNS_5CacheEPKcPcj
G7a:_emscripten_glTexParameterIiv__wrapper
xTa:_ecdh_gen_public_restartable
h6a:_emscripten_glGenFramebuffers__wrapper
QIa:__ZN7dmSound8AddGroupEPKc
h_:__Z6b2FreePv
rra:__ZN11dmHashTableIj16ReverseHashEntryE3PutEjRKS0_
s$a:_fclose
Vba:_bit_bnot
Lka:_luaB_rawequal
xoa:__ZN7dmInput13ForEachActiveEPNS_7BindingEPFvyPNS_6ActionEPvES4_
yMa:_mbedtls_sha1_update_ret
zk:FUNCTION_TABLE_viiiii
Ma:invoke_viiif
jO:__ZN23btDiscreteDynamicsWorld19getConstraintSolverEv
Lg:_gethostbyname
cGa:__ZN5dmGuiL12LuaSetParentEP9lua_State
Kia:_luaL_typerror
hi:_glfwGetJoystickButtons
KU:__ZN14btCapsuleShapeC2Eff
Sea:_opt_set_ip_drop_membersip
ey:__ZN12dmGameSystem16UpdateTransformsEPNS_10ModelWorldE
BGa:__ZN5dmGuiL16LuaSetParticlefxEP9lua_State
sa:invoke_vd
Xma:_str_len
Qka:_luaB_setmetatable
ei:_glfwCloseWindow
nka:_luaB_ipairs
KL:__ZN9dmPhysics13CreateJoint2DEPNS_7World2DEPvRKN10Vectormath3Aos6Point3ES2_S7_NS_9JointTypeERKNS_18ConnectJointParamsE
r1:__ZNK12b2MouseJoint10GetAnchorBEv
jZ:__ZNK11b2EdgeShape5CloneEP16b2BlockAllocator
gZa:___stdio_read
ag:_emscripten_glVertexAttrib3fv
wBa:__ZN5dmGui17NewDynamicTextureEPNS_5SceneEyjjN7dmImage4TypeEbPKvj
Ida:__GLOBAL__sub_I_sys_ddf_cpp
Haa:__ZN8dmScriptL17Matrix4_RotationYEP9lua_State
qya:_HU4
NIa:__ZN7dmSound9IsPlayingEPNS_13SoundInstanceE
aV:__ZNK15btCompoundShape9serializeEPvP12btSerializer
yaa:__ZN8dmScriptL14Quat_RotationYEP9lua_State
jua:__ZN9dmProfile11GetNameHashEPKcj
sKa:_mbedtls_ctr_drbg_seed
Kc:_emscripten_glClearColor
l7a:_emscripten_glUniform3fv__wrapper
m$:__ZN6b2Body19SynchronizeFixturesEv
Xh:_glTexParameteri
ERa:_mpi_montred
wHa:__ZN7dmCrashL13FinalizeCrashEPN11dmExtension6ParamsE
z1a:_abort_message
f8:__ZN8dmScript17GetProfilerStringEP9lua_StateiPKcS3_S3_Pj
ck:FUNCTION_TABLE_vdddddd
cr:__ZN5dmDDF21GetDescriptorFromHashEy
BS:__ZN36btDiscreteCollisionDetectorInterface6ResultD2Ev
iQ:__ZNK16btDbvtBroadphase7getAabbEP17btBroadphaseProxyR9btVector3S3_
x$a:___fdopen
aMa:_if_int
CE:__ZN12dmGameSystem19ScriptLabelRegisterERKNS_16ScriptLibContextE
P7:__ZN8dmScriptL23GetInstanceContextTableEP9lua_State
y9:__ZN8dmScript13Sys_GetConfigEP9lua_State
Qqa:__ZN12dmConfigFile8GetFloatEPNS_6ConfigEPKcf
oi:_glfwGetMousePos
uN:__ZN9dmPhysics17OverlapCachePruneEPNS_12OverlapCacheERKNS_21OverlapCachePruneDataE
Wwa:_CustomSetup
EK:__ZN10dmGraphicsL18PostDeleteTexturesEb
zw:__ZN12dmGameSystem21RenderParticlefxNodesEPN5dmGui5SceneEPKNS0_11RenderEntryEPKN10Vectormath3Aos7Matrix4EPKfPPKNS0_12StencilScopeEjPv
zO:__ZN23btDiscreteDynamicsWorld12addRigidBodyEP11btRigidBodyss
cua:__ZN11dmHashTableImPKcE11SetCapacityEjj
Ux:__ZN12dmObjectPoolIPN12dmGameSystem14ModelComponentEE11SetCapacityEj
Uw:__GLOBAL__sub_I_comp_label_cpp
QZa:_scalbn
wKa:_mbedtls_entropy_init
sYa:_ccm_auth_crypt
jx:__ZN12dmGameSystem16CompLabelGetTextEPKNS_14LabelComponentE
Jya:_VP8LAddGreenToBlueAndRed_C
zka:_luaB_assert
ay:__ZN12dmGameSystem20CompModelDeleteWorldERKN12dmGameObject26ComponentDeleteWorldParamsE
aHa:__ZN5dmGuiL16GuiScriptIsValidEP9lua_State
Eqa:__ZN12dmConfigFileL8ParseKeyEPNS_7ContextEPci
Z6:__ZN8dmScript8LuaPrintEP9lua_State
Nca:_timeout_markstart
kNa:_mbedtls_cipher_get_cipher_mode
Ima:_tinsert
uNa:_mbedtls_ssl_flight_transmit
TY:__ZL13btFreeDefaultPv
_aa:__ZN8dmScriptL16Matrix4_newindexEP9lua_State
gT:__ZN16btEmptyAlgorithm21calculateTimeOfImpactEP17btCollisionObjectS1_RK16btDispatcherInfoP16btManifoldResult
qba:__ZN8dmScriptL14Vector4_concatEP9lua_State
sja:_luaK_code
QGa:__ZN5dmGuiL15NodeProxy_indexEP9lua_State
e0:__ZN7b2World13DrawDebugDataEv
zPa:_mbedtls_ssl_config_defaults
d8a:_emscripten_glGetInfoLogARB__wrapper
M_:__ZN15b2RevoluteJoint24SolveVelocityConstraintsERK12b2SolverData
MKa:_mbedtls_pk_free
jha:_markmt
ds:__ZN5dmDDF11LoadContext15SetMemoryBufferEPcib
Nna:__ZN5dmHID15AddKeyboardCharEPNS_7ContextEi
bY:__ZN33btConvexConcaveCollisionAlgorithmD0Ev
TD:__ZN12dmGameSystemL6CreateEP9lua_State
QO:__ZN23btDiscreteDynamicsWorldC2EP12btDispatcherP21btBroadphaseInterfaceP18btConstraintSolverP24btCollisionConfiguration
b_:__ZNK6b2Draw8GetFlagsEv
Hs:__ZN10dmResource10NewFactoryEPNS_16NewFactoryParamsEPKc
uUa:_mbedtls_ecp_check_pubkey
OIa:__ZN7dmSound4StopEPNS_13SoundInstanceE
TX:__ZN28btCompoundCollisionAlgorithmD0Ev
Tta:__ZN7dmMutex6UnlockEPNS_5MutexE
xEa:__ZN5dmGui13LuaDeleteNodeEP9lua_State
Yo:__ZN12dmGameObject30CreatePropertyContainerFromLuaEPvPhj
rD:__ZN12dmGameSystem16ReleaseResourcesEPN10dmResource16SResourceFactoryEPNS_16TileGridResourceE
he:_emscripten_glGetShaderInfoLog
AKa:_entropy_gather_internal
nv:__ZN12dmGameSystem24CompCollisionObjectFinalERKN12dmGameObject20ComponentFinalParamsE
fF:__ZN12dmGameSystemL18Physics_SetGravityEP9lua_State
NZ:__ZN14b2PolygonShape3SetEPK6b2Vec2i
bN:__ZN9dmPhysics11DebugDraw3D18reportErrorWarningEPKc
Zh:_glUniform1i
_1:__ZN12b2WheelJoint4DumpEv
sDa:__ZN5dmGui12SetNodeLayerEPNS_5SceneEjPKc
fEa:__ZN5dmGui25GetNodeFlipbookAnimUVFlipEPNS_5SceneEjRbS2_
Sk:__ZN8dmEngine14OnWindowResizeEPvjj
Xea:_opt_set_ip6_v6only
fMa:_mbedtls_rsa_rsassa_pss_sign
oTa:_mbedtls_dhm_init
Kqa:__ZN12dmConfigFile4LoadEPKciPS1_PPNS_6ConfigE
Az:__ZN12dmGameSystem25CompSpineModelSetPropertyERKN12dmGameObject26ComponentSetPropertyParamsE
z4:__ZN8dmRender17ClearMaterialTagsEPNS_8MaterialE
Jja:_luaK_exp2nextreg
jNa:_mbedtls_ssl_encrypt_buf
awa:_inflateInit2_
m3:__ZN11b2GearJoint24SolvePositionConstraintsERK12b2SolverData
vDa:__ZN5dmGui21SetNodeFlipbookCursorEPNS_5SceneEjf
sG:__ZN12dmGameSystemL7GetSizeEP9lua_State
KJ:__ZN10dmGraphicsL24OpenGLGetUniformLocationEmPKc
g$:__ZN11b2RopeJoint24SolvePositionConstraintsERK12b2SolverData
fB:__ZN12dmGameSystem16ResEmitterCreateERKN10dmResource20ResourceCreateParamsE
UIa:__ZN7dmSound12GetGroupHashEjPy
IMa:_mbedtls_sha256_ret
fv:__ZN12dmGameSystem27CompCollisionObjectNewWorldERKN12dmGameObject23ComponentNewWorldParamsE
kba:__ZN8dmScriptL16Vector4_newindexEP9lua_State
CR:__ZNK17btCollisionObject9serializeEPvP12btSerializer
vM:__ZN9dmPhysics9GetMass3DEPv
HXa:_ssl_write_truncated_hmac_ext
tZ:__ZNK11b2GridShape13GetChildCountEv
On:__ZN12dmGameObject25GetInstanceFromIdentifierEPNS_16CollectionHandleEy
ET:__ZN32btSphereSphereCollisionAlgorithm22getAllContactManifoldsER20btAlignedObjectArrayIP20btPersistentManifoldE
IZ:__ZNK14b2PolygonShape9TestPointERK11b2TransformRK6b2Vec2
IO:__ZZN23btDiscreteDynamicsWorld16solveConstraintsER19btContactSolverInfoEN27InplaceSolverIslandCallback13ProcessIslandEPP17btCollisionObjectiPP20btPersistentManifoldii
yZa:_toupper
w4:__ZNSt3__27__sort4IRPFbRKN8dmRender3TagES4_EPS2_EEjT0_S9_S9_S9_T_
oY:__ZN23btConvexConvexAlgorithm10CreateFunc24CreateCollisionAlgorithmER36btCollisionAlgorithmConstructionInfoP17btCollisionObjectS4_
j1:__ZN16b2PolygonContact6CreateEP9b2FixtureiS1_iP16b2BlockAllocator
K3a:dynCall_viiiiiiiiiii
d9a:_emscripten_glCompressedTexSubImage2D__wrapper
ZF:__ZN12dmGameSystem24ScriptSpineModelRegisterERKNS_16ScriptLibContextE
